
========================================================================

** ELF Header Information

    File Name: .\obj\29'Display_MainBoard_V21.axf

    Machine class: ELFCLASS32 (32-bit)
    Data encoding: ELFDATA2LSB (Little endian)
    Header version: EV_CURRENT (Current version)
    Operating System ABI: none
    ABI Version: 0
    File Type: ET_EXEC (Executable) (2)
    Machine: EM_ARM (ARM)

    Image Entry point: 0x00000179
    Flags: EF_ARM_HASENTRY (0x05000002)

    ARM ELF revision: 5 (ABI version 2)

    Built with
    ARM C/C++ Compiler, 4.1 [Build 481]
    ARM Assembler, 4.1 [Build 481]
    ARM Linker, 4.1 [Build 481] 

    Header size: 52 bytes (0x34)
    Program header entry size: 32 bytes (0x20)
    Section header entry size: 40 bytes (0x28)

    Program header entries: 1
    Section header entries: 16

    Program header offset: 204828 (0x0003201c)
    Section header offset: 204860 (0x0003203c)

    Section header string table index: 15

========================================================================

** Program header #0 (PT_LOAD) [PF_X + PF_W + PF_R + PF_ARM_ENTRY]
    Size : 17632 bytes (16092 bytes in file)
    Virtual address: 0x00000000 (Alignment 8)


========================================================================

** Section #1 'ER_RO' (SHT_PROGBITS) [SHF_ALLOC + SHF_EXECINSTR]
    Size   : 15880 bytes (alignment 4)
    Address: 0x00000000

    $d.realdata
    RESET
    __Vectors
        0x00000000:    200006d8    ...     DCD    536872664
        0x00000004:    00000179    y...    DCD    377
        0x00000008:    0000019f    ....    DCD    415
        0x0000000c:    000001a1    ....    DCD    417
        0x00000010:    00000000    ....    DCD    0
        0x00000014:    00000000    ....    DCD    0
        0x00000018:    00000000    ....    DCD    0
        0x0000001c:    00000000    ....    DCD    0
        0x00000020:    00000000    ....    DCD    0
        0x00000024:    00000000    ....    DCD    0
        0x00000028:    00000000    ....    DCD    0
        0x0000002c:    000001a3    ....    DCD    419
        0x00000030:    00000000    ....    DCD    0
        0x00000034:    00000000    ....    DCD    0
        0x00000038:    000001a5    ....    DCD    421
        0x0000003c:    000001a7    ....    DCD    423
        0x00000040:    00001649    I...    DCD    5705
        0x00000044:    00003321    !3..    DCD    13089
        0x00000048:    000023e5    .#..    DCD    9189
        0x0000004c:    00002401    .$..    DCD    9217
        0x00000050:    0000241d    .$..    DCD    9245
        0x00000054:    00002441    A$..    DCD    9281
        0x00000058:    00002759    Y'..    DCD    10073
        0x0000005c:    00002805    .(..    DCD    10245
        0x00000060:    00002a29    )*..    DCD    10793
        0x00000064:    00002a7d    }*..    DCD    10877
        0x00000068:    00002ad1    .*..    DCD    10961
        0x0000006c:    00002b25    %+..    DCD    11045
        0x00000070:    00002d0d    .-..    DCD    11533
        0x00000074:    00002d91    .-..    DCD    11665
        0x00000078:    000029a9    .)..    DCD    10665
        0x0000007c:    000029cd    .)..    DCD    10701
        0x00000080:    000001a9    ....    DCD    425
        0x00000084:    000001a9    ....    DCD    425
        0x00000088:    000025f9    .%..    DCD    9721
        0x0000008c:    000001a9    ....    DCD    425
        0x00000090:    000001a9    ....    DCD    425
        0x00000094:    000001a9    ....    DCD    425
        0x00000098:    000001a9    ....    DCD    425
        0x0000009c:    000001a9    ....    DCD    425
        0x000000a0:    000001a9    ....    DCD    425
        0x000000a4:    000001a9    ....    DCD    425
        0x000000a8:    000001a9    ....    DCD    425
        0x000000ac:    000001a9    ....    DCD    425
        0x000000b0:    00002989    .)..    DCD    10633
        0x000000b4:    0000153d    =...    DCD    5437
        0x000000b8:    000001a9    ....    DCD    425
        0x000000bc:    000001a9    ....    DCD    425
    $t
    !!!main
    __main
        0x000000c0:    f000f802    ....    BL       __scatterload ; 0xc8
        0x000000c4:    f000f848    ..H.    BL       __rt_entry ; 0x158
    !!!scatter
    __scatterload
    __scatterload_rt2
    __scatterload_rt2_thumb_only
        0x000000c8:    a00c        ..      ADR      r0,{pc}+0x34 ; 0xfc
        0x000000ca:    c830        0.      LDM      r0!,{r4,r5}
        0x000000cc:    3808        .8      SUBS     r0,r0,#8
        0x000000ce:    1824        $.      ADDS     r4,r4,r0
        0x000000d0:    182d        -.      ADDS     r5,r5,r0
        0x000000d2:    46a2        .F      MOV      r10,r4
        0x000000d4:    1e67        g.      SUBS     r7,r4,#1
        0x000000d6:    46ab        .F      MOV      r11,r5
    __scatterload_null
        0x000000d8:    4654        TF      MOV      r4,r10
        0x000000da:    465d        ]F      MOV      r5,r11
        0x000000dc:    42ac        .B      CMP      r4,r5
        0x000000de:    d101        ..      BNE      0xe4 ; __scatterload_null + 12
        0x000000e0:    f000f83a    ..:.    BL       __rt_entry ; 0x158
        0x000000e4:    467e        ~F      MOV      r6,pc
        0x000000e6:    3e0f        .>      SUBS     r6,r6,#0xf
        0x000000e8:    cc0f        ..      LDM      r4!,{r0-r3}
        0x000000ea:    46b6        .F      MOV      lr,r6
        0x000000ec:    2601        .&      MOVS     r6,#1
        0x000000ee:    4233        3B      TST      r3,r6
        0x000000f0:    d000        ..      BEQ      0xf4 ; __scatterload_null + 28
        0x000000f2:    1afb        ..      SUBS     r3,r7,r3
        0x000000f4:    46a2        .F      MOV      r10,r4
        0x000000f6:    46ab        .F      MOV      r11,r5
        0x000000f8:    4333        3C      ORRS     r3,r3,r6
        0x000000fa:    4718        .G      BX       r3
    $d
        0x000000fc:    00003cec    .<..    DCD    15596
        0x00000100:    00003d0c    .=..    DCD    15628
    $t
    !!handler_copy
    __scatterload_copy
        0x00000104:    3a10        .:      SUBS     r2,r2,#0x10
        0x00000106:    d302        ..      BCC      0x10e ; __scatterload_copy + 10
        0x00000108:    c878        x.      LDM      r0!,{r3-r6}
        0x0000010a:    c178        x.      STM      r1!,{r3-r6}
        0x0000010c:    d8fa        ..      BHI      __scatterload_copy ; 0x104
        0x0000010e:    0752        R.      LSLS     r2,r2,#29
        0x00000110:    d301        ..      BCC      0x116 ; __scatterload_copy + 18
        0x00000112:    c830        0.      LDM      r0!,{r4,r5}
        0x00000114:    c130        0.      STM      r1!,{r4,r5}
        0x00000116:    d501        ..      BPL      0x11c ; __scatterload_copy + 24
        0x00000118:    6804        .h      LDR      r4,[r0,#0]
        0x0000011a:    600c        .`      STR      r4,[r1,#0]
        0x0000011c:    4770        pG      BX       lr
        0x0000011e:    0000        ..      MOVS     r0,r0
    !!handler_zi
    __scatterload_zeroinit
        0x00000120:    2300        .#      MOVS     r3,#0
        0x00000122:    2400        .$      MOVS     r4,#0
        0x00000124:    2500        .%      MOVS     r5,#0
        0x00000126:    2600        .&      MOVS     r6,#0
        0x00000128:    3a10        .:      SUBS     r2,r2,#0x10
        0x0000012a:    d301        ..      BCC      0x130 ; __scatterload_zeroinit + 16
        0x0000012c:    c178        x.      STM      r1!,{r3-r6}
        0x0000012e:    d8fb        ..      BHI      0x128 ; __scatterload_zeroinit + 8
        0x00000130:    0752        R.      LSLS     r2,r2,#29
        0x00000132:    d300        ..      BCC      0x136 ; __scatterload_zeroinit + 22
        0x00000134:    c130        0.      STM      r1!,{r4,r5}
        0x00000136:    d500        ..      BPL      0x13a ; __scatterload_zeroinit + 26
        0x00000138:    600b        .`      STR      r3,[r1,#0]
        0x0000013a:    4770        pG      BX       lr
    .ARM.Collect$$_printf_percent$$00000000
    _printf_percent
        0x0000013c:    b510        ..      PUSH     {r4,lr}
    .ARM.Collect$$_printf_percent$$0000000C
    _printf_x
        0x0000013e:    2978        x)      CMP      r1,#0x78
        0x00000140:    d102        ..      BNE      _printf_percent_end ; 0x148
        0x00000142:    f000f861    ..a.    BL       _printf_int_hex ; 0x208
        0x00000146:    bd10        ..      POP      {r4,pc}
    .ARM.Collect$$_printf_percent$$00000017
    _printf_percent_end
        0x00000148:    2000        .       MOVS     r0,#0
        0x0000014a:    bd10        ..      POP      {r4,pc}
    .ARM.Collect$$libinit$$00000000
    __rt_lib_init
        0x0000014c:    b51f        ..      PUSH     {r0-r4,lr}
        0x0000014e:    46c0        .F      MOV      r8,r8
        0x00000150:    46c0        .F      MOV      r8,r8
    .ARM.Collect$$libinit$$00000006
    .ARM.Collect$$libinit$$00000008
    .ARM.Collect$$libinit$$0000000A
    .ARM.Collect$$libinit$$0000000D
    .ARM.Collect$$libinit$$0000000F
    .ARM.Collect$$libinit$$00000011
    .ARM.Collect$$libinit$$00000013
    .ARM.Collect$$libinit$$00000015
    .ARM.Collect$$libinit$$00000017
    .ARM.Collect$$libinit$$00000019
    .ARM.Collect$$libinit$$0000001B
    .ARM.Collect$$libinit$$0000001D
    .ARM.Collect$$libinit$$0000001F
    .ARM.Collect$$libinit$$00000021
    .ARM.Collect$$libinit$$00000028
    .ARM.Collect$$libinit$$0000002A
    .ARM.Collect$$libinit$$0000002C
    .ARM.Collect$$libinit$$0000002E
    .ARM.Collect$$libinit$$0000002F
    __rt_lib_init_alloca_1
    __rt_lib_init_argv_1
    __rt_lib_init_atexit_1
    __rt_lib_init_clock_1
    __rt_lib_init_cpp_1
    __rt_lib_init_exceptions_1
    __rt_lib_init_fp_trap_1
    __rt_lib_init_getenv_1
    __rt_lib_init_heap_1
    __rt_lib_init_lc_collate_1
    __rt_lib_init_lc_ctype_1
    __rt_lib_init_lc_monetary_1
    __rt_lib_init_lc_numeric_1
    __rt_lib_init_lc_time_1
    __rt_lib_init_rand_1
    __rt_lib_init_return
    __rt_lib_init_signal_1
    __rt_lib_init_stdio_1
    __rt_lib_init_user_alloc_1
        0x00000152:    bd1f        ..      POP      {r0-r4,pc}
    .ARM.Collect$$libshutdown$$00000000
    __rt_lib_shutdown
        0x00000154:    b510        ..      PUSH     {r4,lr}
    .ARM.Collect$$libshutdown$$00000003
    .ARM.Collect$$libshutdown$$00000006
    .ARM.Collect$$libshutdown$$00000009
    .ARM.Collect$$libshutdown$$0000000B
    .ARM.Collect$$libshutdown$$0000000E
    .ARM.Collect$$libshutdown$$0000000F
    __rt_lib_shutdown_fp_trap_1
    __rt_lib_shutdown_heap_1
    __rt_lib_shutdown_return
    __rt_lib_shutdown_signal_1
    __rt_lib_shutdown_stdio_1
    __rt_lib_shutdown_user_alloc_1
        0x00000156:    bd10        ..      POP      {r4,pc}
    .ARM.Collect$$rtentry$$00000000
    .ARM.Collect$$rtentry$$00000002
    .ARM.Collect$$rtentry$$00000004
    __rt_entry
    __rt_entry_presh_1
    __rt_entry_sh
        0x00000158:    f001f80c    ....    BL       __user_setup_stackheap ; 0x1174
        0x0000015c:    4611        .F      MOV      r1,r2
    .ARM.Collect$$rtentry$$00000009
    .ARM.Collect$$rtentry$$0000000A
    __rt_entry_li
    __rt_entry_postsh_1
        0x0000015e:    f7fffff5    ....    BL       __rt_lib_init ; 0x14c
    .ARM.Collect$$rtentry$$0000000C
    .ARM.Collect$$rtentry$$0000000D
    __rt_entry_main
    __rt_entry_postli_1
        0x00000162:    f003f913    ....    BL       main ; 0x338c
        0x00000166:    f001f824    ..$.    BL       exit ; 0x11b2
    .ARM.Collect$$rtexit$$00000000
    __rt_exit
        0x0000016a:    b403        ..      PUSH     {r0,r1}
    .ARM.Collect$$rtexit$$00000002
    .ARM.Collect$$rtexit$$00000003
    __rt_exit_ls
    __rt_exit_prels_1
        0x0000016c:    f7fffff2    ....    BL       __rt_lib_shutdown ; 0x154
    .ARM.Collect$$rtexit$$00000004
    __rt_exit_exit
        0x00000170:    bc03        ..      POP      {r0,r1}
        0x00000172:    f001f85b    ..[.    BL       _sys_exit ; 0x122c
        0x00000176:    0000        ..      MOVS     r0,r0
    .text
    Reset_Handler
        0x00000178:    480f        .H      LDR      r0,[pc,#60] ; [0x1b8] = 0x50000100
        0x0000017a:    4910        .I      LDR      r1,[pc,#64] ; [0x1bc] = 0x59
        0x0000017c:    6001        .`      STR      r1,[r0,#0]
        0x0000017e:    4910        .I      LDR      r1,[pc,#64] ; [0x1c0] = 0x16
        0x00000180:    6001        .`      STR      r1,[r0,#0]
        0x00000182:    4910        .I      LDR      r1,[pc,#64] ; [0x1c4] = 0x88
        0x00000184:    6001        .`      STR      r1,[r0,#0]
        0x00000186:    4a10        .J      LDR      r2,[pc,#64] ; [0x1c8] = 0x50000024
        0x00000188:    4910        .I      LDR      r1,[pc,#64] ; [0x1cc] = 0x5aa5
        0x0000018a:    6011        .`      STR      r1,[r2,#0]
        0x0000018c:    4a10        .J      LDR      r2,[pc,#64] ; [0x1d0] = 0x50000380
        0x0000018e:    4911        .I      LDR      r1,[pc,#68] ; [0x1d4] = 0x1f
        0x00000190:    6011        .`      STR      r1,[r2,#0]
        0x00000192:    2100        .!      MOVS     r1,#0
        0x00000194:    6001        .`      STR      r1,[r0,#0]
        0x00000196:    4810        .H      LDR      r0,[pc,#64] ; [0x1d8] = 0x2a25
        0x00000198:    4780        .G      BLX      r0
        0x0000019a:    4810        .H      LDR      r0,[pc,#64] ; [0x1dc] = 0xc1
        0x0000019c:    4700        .G      BX       r0
    NMI_Handler
        0x0000019e:    e7fe        ..      B        NMI_Handler ; 0x19e
    HardFault_Handler
        0x000001a0:    e7fe        ..      B        HardFault_Handler ; 0x1a0
    SVC_Handler
        0x000001a2:    e7fe        ..      B        SVC_Handler ; 0x1a2
    PendSV_Handler
        0x000001a4:    e7fe        ..      B        PendSV_Handler ; 0x1a4
    SysTick_Handler
        0x000001a6:    e7fe        ..      B        SysTick_Handler ; 0x1a6
    Default_Handler
    SPI2_IRQHandler
    SPI3_IRQHandler
        0x000001a8:    e7fe        ..      B        Default_Handler ; 0x1a8
    $d
        0x000001aa:    0000        ..      DCW    0
    $t
    __user_initial_stackheap
        0x000001ac:    480c        .H      LDR      r0,[pc,#48] ; [0x1e0] = 0x200002d8
        0x000001ae:    490d        .I      LDR      r1,[pc,#52] ; [0x1e4] = 0x200006d8
        0x000001b0:    4a0b        .J      LDR      r2,[pc,#44] ; [0x1e0] = 0x200002d8
        0x000001b2:    4b0d        .K      LDR      r3,[pc,#52] ; [0x1e8] = 0x200002d8
        0x000001b4:    4770        pG      BX       lr
    $d
        0x000001b6:    0000        ..      DCW    0
        0x000001b8:    50000100    ...P    DCD    1342177536
        0x000001bc:    00000059    Y...    DCD    89
        0x000001c0:    00000016    ....    DCD    22
        0x000001c4:    00000088    ....    DCD    136
        0x000001c8:    50000024    $..P    DCD    1342177316
        0x000001cc:    00005aa5    .Z..    DCD    23205
        0x000001d0:    50000380    ...P    DCD    1342178176
        0x000001d4:    0000001f    ....    DCD    31
        0x000001d8:    00002a25    %*..    DCD    10789
        0x000001dc:    000000c1    ....    DCD    193
        0x000001e0:    200002d8    ...     DCD    536871640
        0x000001e4:    200006d8    ...     DCD    536872664
        0x000001e8:    200002d8    ...     DCD    536871640
    $t
    .text
    __2printf
        0x000001ec:    b40f        ..      PUSH     {r0-r3}
        0x000001ee:    4905        .I      LDR      r1,[pc,#20] ; [0x204] = 0x200000d0
        0x000001f0:    b510        ..      PUSH     {r4,lr}
        0x000001f2:    aa03        ..      ADD      r2,sp,#0xc
        0x000001f4:    9802        ..      LDR      r0,[sp,#8]
        0x000001f6:    f000ff2d    ..-.    BL       _printf_char_file ; 0x1054
        0x000001fa:    bc10        ..      POP      {r4}
        0x000001fc:    bc08        ..      POP      {r3}
        0x000001fe:    b004        ..      ADD      sp,sp,#0x10
        0x00000200:    4718        .G      BX       r3
    $d
        0x00000202:    0000        ..      DCW    0
        0x00000204:    200000d0    ...     DCD    536871120
    $t
    .text
    _printf_int_hex
    _printf_longlong_hex
        0x00000208:    b570        p.      PUSH     {r4-r6,lr}
        0x0000020a:    4604        .F      MOV      r4,r0
        0x0000020c:    460d        .F      MOV      r5,r1
        0x0000020e:    4621        !F      MOV      r1,r4
        0x00000210:    6810        .h      LDR      r0,[r2,#0]
        0x00000212:    46c0        .F      MOV      r8,r8
        0x00000214:    46c0        .F      MOV      r8,r8
        0x00000216:    6821        !h      LDR      r1,[r4,#0]
        0x00000218:    0509        ..      LSLS     r1,r1,#20
        0x0000021a:    d502        ..      BPL      0x222 ; _printf_int_hex + 26
        0x0000021c:    4a0f        .J      LDR      r2,[pc,#60] ; [0x25c] = 0x3b1e
        0x0000021e:    447a        zD      ADD      r2,r2,pc
        0x00000220:    e002        ..      B        0x228 ; _printf_int_hex + 32
        0x00000222:    4a0e        .J      LDR      r2,[pc,#56] ; [0x25c] = 0x3b1e
        0x00000224:    447a        zD      ADD      r2,r2,pc
        0x00000226:    320e        .2      ADDS     r2,r2,#0xe
        0x00000228:    4623        #F      MOV      r3,r4
        0x0000022a:    2100        .!      MOVS     r1,#0
        0x0000022c:    3324        $3      ADDS     r3,r3,#0x24
        0x0000022e:    e005        ..      B        0x23c ; _printf_int_hex + 52
        0x00000230:    0706        ..      LSLS     r6,r0,#28
        0x00000232:    0f36        6.      LSRS     r6,r6,#28
        0x00000234:    5d96        .]      LDRB     r6,[r2,r6]
        0x00000236:    545e        ^T      STRB     r6,[r3,r1]
        0x00000238:    1c49        I.      ADDS     r1,r1,#1
        0x0000023a:    0900        ..      LSRS     r0,r0,#4
        0x0000023c:    2800        .(      CMP      r0,#0
        0x0000023e:    d1f7        ..      BNE      0x230 ; _printf_int_hex + 40
        0x00000240:    6820         h      LDR      r0,[r4,#0]
        0x00000242:    2300        .#      MOVS     r3,#0
        0x00000244:    0700        ..      LSLS     r0,r0,#28
        0x00000246:    d505        ..      BPL      0x254 ; _printf_int_hex + 76
        0x00000248:    2d70        p-      CMP      r5,#0x70
        0x0000024a:    d003        ..      BEQ      0x254 ; _printf_int_hex + 76
        0x0000024c:    2900        .)      CMP      r1,#0
        0x0000024e:    d001        ..      BEQ      0x254 ; _printf_int_hex + 76
        0x00000250:    3211        .2      ADDS     r2,r2,#0x11
        0x00000252:    2302        .#      MOVS     r3,#2
        0x00000254:    4620         F      MOV      r0,r4
        0x00000256:    f000fea7    ....    BL       _printf_int_common ; 0xfa8
        0x0000025a:    bd70        p.      POP      {r4-r6,pc}
    $d
        0x0000025c:    00003b1e    .;..    DCD    15134
    $t
    .text
    __printf
        0x00000260:    b5f3        ..      PUSH     {r0,r1,r4-r7,lr}
        0x00000262:    4604        .F      MOV      r4,r0
        0x00000264:    2000        .       MOVS     r0,#0
        0x00000266:    b081        ..      SUB      sp,sp,#4
        0x00000268:    e082        ..      B        0x370 ; __printf + 272
        0x0000026a:    68e1        .h      LDR      r1,[r4,#0xc]
        0x0000026c:    4620         F      MOV      r0,r4
        0x0000026e:    4788        .G      BLX      r1
        0x00000270:    2800        .(      CMP      r0,#0
        0x00000272:    d07f        ..      BEQ      0x374 ; __printf + 276
        0x00000274:    2825        %(      CMP      r0,#0x25
        0x00000276:    d002        ..      BEQ      0x27e ; __printf + 30
        0x00000278:    6862        bh      LDR      r2,[r4,#4]
        0x0000027a:    68a1        .h      LDR      r1,[r4,#8]
        0x0000027c:    e075        u.      B        0x36a ; __printf + 266
        0x0000027e:    68e1        .h      LDR      r1,[r4,#0xc]
        0x00000280:    4620         F      MOV      r0,r4
        0x00000282:    2600        .&      MOVS     r6,#0
        0x00000284:    4788        .G      BLX      r1
        0x00000286:    4605        .F      MOV      r5,r0
        0x00000288:    2000        .       MOVS     r0,#0
        0x0000028a:    61e0        .a      STR      r0,[r4,#0x1c]
        0x0000028c:    4607        .F      MOV      r7,r0
        0x0000028e:    61a0        .a      STR      r0,[r4,#0x18]
        0x00000290:    2d2a        *-      CMP      r5,#0x2a
        0x00000292:    d00b        ..      BEQ      0x2ac ; __printf + 76
        0x00000294:    4629        )F      MOV      r1,r5
        0x00000296:    2201        ."      MOVS     r2,#1
        0x00000298:    3930        09      SUBS     r1,r1,#0x30
        0x0000029a:    290a        .)      CMP      r1,#0xa
        0x0000029c:    d22b        +.      BCS      0x2f6 ; __printf + 150
        0x0000029e:    2a00        .*      CMP      r2,#0
        0x000002a0:    d029        ).      BEQ      0x2f6 ; __printf + 150
        0x000002a2:    00b8        ..      LSLS     r0,r7,#2
        0x000002a4:    1900        ..      ADDS     r0,r0,r4
        0x000002a6:    9000        ..      STR      r0,[sp,#0]
        0x000002a8:    6181        .a      STR      r1,[r0,#0x18]
        0x000002aa:    e019        ..      B        0x2e0 ; __printf + 128
        0x000002ac:    9802        ..      LDR      r0,[sp,#8]
        0x000002ae:    00ba        ..      LSLS     r2,r7,#2
        0x000002b0:    1912        ..      ADDS     r2,r2,r4
        0x000002b2:    c802        ..      LDM      r0!,{r1}
        0x000002b4:    6191        .a      STR      r1,[r2,#0x18]
        0x000002b6:    9002        ..      STR      r0,[sp,#8]
        0x000002b8:    4620         F      MOV      r0,r4
        0x000002ba:    68e1        .h      LDR      r1,[r4,#0xc]
        0x000002bc:    4788        .G      BLX      r1
        0x000002be:    2f01        ./      CMP      r7,#1
        0x000002c0:    4605        .F      MOV      r5,r0
        0x000002c2:    d11a        ..      BNE      0x2fa ; __printf + 154
        0x000002c4:    69e0        .i      LDR      r0,[r4,#0x1c]
        0x000002c6:    2800        .(      CMP      r0,#0
        0x000002c8:    da22        ".      BGE      0x310 ; __printf + 176
        0x000002ca:    2020                MOVS     r0,#0x20
        0x000002cc:    4386        .C      BICS     r6,r6,r0
        0x000002ce:    e01f        ..      B        0x310 ; __printf + 176
        0x000002d0:    9800        ..      LDR      r0,[sp,#0]
        0x000002d2:    210a        .!      MOVS     r1,#0xa
        0x000002d4:    6980        .i      LDR      r0,[r0,#0x18]
        0x000002d6:    4348        HC      MULS     r0,r1,r0
        0x000002d8:    9900        ..      LDR      r1,[sp,#0]
        0x000002da:    1940        @.      ADDS     r0,r0,r5
        0x000002dc:    3830        08      SUBS     r0,r0,#0x30
        0x000002de:    6188        .a      STR      r0,[r1,#0x18]
        0x000002e0:    4620         F      MOV      r0,r4
        0x000002e2:    68e1        .h      LDR      r1,[r4,#0xc]
        0x000002e4:    4788        .G      BLX      r1
        0x000002e6:    4605        .F      MOV      r5,r0
        0x000002e8:    2001        .       MOVS     r0,#1
        0x000002ea:    4629        )F      MOV      r1,r5
        0x000002ec:    3930        09      SUBS     r1,r1,#0x30
        0x000002ee:    290a        .)      CMP      r1,#0xa
        0x000002f0:    d201        ..      BCS      0x2f6 ; __printf + 150
        0x000002f2:    2800        .(      CMP      r0,#0
        0x000002f4:    d1ec        ..      BNE      0x2d0 ; __printf + 112
        0x000002f6:    2f01        ./      CMP      r7,#1
        0x000002f8:    d00a        ..      BEQ      0x310 ; __printf + 176
        0x000002fa:    2d2e        .-      CMP      r5,#0x2e
        0x000002fc:    d108        ..      BNE      0x310 ; __printf + 176
        0x000002fe:    4620         F      MOV      r0,r4
        0x00000300:    68e1        .h      LDR      r1,[r4,#0xc]
        0x00000302:    4788        .G      BLX      r1
        0x00000304:    4605        .F      MOV      r5,r0
        0x00000306:    2020                MOVS     r0,#0x20
        0x00000308:    4306        .C      ORRS     r6,r6,r0
        0x0000030a:    1c7f        ..      ADDS     r7,r7,#1
        0x0000030c:    2f02        ./      CMP      r7,#2
        0x0000030e:    dbbf        ..      BLT      0x290 ; __printf + 48
        0x00000310:    69a0        .i      LDR      r0,[r4,#0x18]
        0x00000312:    2800        .(      CMP      r0,#0
        0x00000314:    da03        ..      BGE      0x31e ; __printf + 190
        0x00000316:    4240        @B      RSBS     r0,r0,#0
        0x00000318:    61a0        .a      STR      r0,[r4,#0x18]
        0x0000031a:    2001        .       MOVS     r0,#1
        0x0000031c:    4306        .C      ORRS     r6,r6,r0
        0x0000031e:    07f0        ..      LSLS     r0,r6,#31
        0x00000320:    d001        ..      BEQ      0x326 ; __printf + 198
        0x00000322:    2010        .       MOVS     r0,#0x10
        0x00000324:    4386        .C      BICS     r6,r6,r0
        0x00000326:    2d00        .-      CMP      r5,#0
        0x00000328:    d024        $.      BEQ      0x374 ; __printf + 276
        0x0000032a:    4628        (F      MOV      r0,r5
        0x0000032c:    3841        A8      SUBS     r0,r0,#0x41
        0x0000032e:    2819        .(      CMP      r0,#0x19
        0x00000330:    d803        ..      BHI      0x33a ; __printf + 218
        0x00000332:    2001        .       MOVS     r0,#1
        0x00000334:    02c0        ..      LSLS     r0,r0,#11
        0x00000336:    4306        .C      ORRS     r6,r6,r0
        0x00000338:    3520         5      ADDS     r5,r5,#0x20
        0x0000033a:    4620         F      MOV      r0,r4
        0x0000033c:    6026        &`      STR      r6,[r4,#0]
        0x0000033e:    4629        )F      MOV      r1,r5
        0x00000340:    9a02        ..      LDR      r2,[sp,#8]
        0x00000342:    4616        .F      MOV      r6,r2
        0x00000344:    f7fffefa    ....    BL       _printf_percent ; 0x13c
        0x00000348:    2800        .(      CMP      r0,#0
        0x0000034a:    d00b        ..      BEQ      0x364 ; __printf + 260
        0x0000034c:    2801        .(      CMP      r0,#1
        0x0000034e:    d006        ..      BEQ      0x35e ; __printf + 254
        0x00000350:    1df6        ..      ADDS     r6,r6,#7
        0x00000352:    08f0        ..      LSRS     r0,r6,#3
        0x00000354:    00c0        ..      LSLS     r0,r0,#3
        0x00000356:    3008        .0      ADDS     r0,r0,#8
        0x00000358:    9002        ..      STR      r0,[sp,#8]
        0x0000035a:    e786        ..      B        0x26a ; __printf + 10
        0x0000035c:    e00a        ..      B        0x374 ; __printf + 276
        0x0000035e:    1d36        6.      ADDS     r6,r6,#4
        0x00000360:    9602        ..      STR      r6,[sp,#8]
        0x00000362:    e782        ..      B        0x26a ; __printf + 10
        0x00000364:    6862        bh      LDR      r2,[r4,#4]
        0x00000366:    4628        (F      MOV      r0,r5
        0x00000368:    68a1        .h      LDR      r1,[r4,#8]
        0x0000036a:    4790        .G      BLX      r2
        0x0000036c:    6a20         j      LDR      r0,[r4,#0x20]
        0x0000036e:    1c40        @.      ADDS     r0,r0,#1
        0x00000370:    6220         b      STR      r0,[r4,#0x20]
        0x00000372:    e77a        z.      B        0x26a ; __printf + 10
        0x00000374:    6a20         j      LDR      r0,[r4,#0x20]
        0x00000376:    bdfe        ..      POP      {r1-r7,pc}
    .text
    __aeabi_uidiv
    __aeabi_uidivmod
        0x00000378:    2200        ."      MOVS     r2,#0
        0x0000037a:    0903        ..      LSRS     r3,r0,#4
        0x0000037c:    428b        .B      CMP      r3,r1
        0x0000037e:    d32c        ,.      BCC      0x3da ; __aeabi_idiv + 78
        0x00000380:    0a03        ..      LSRS     r3,r0,#8
        0x00000382:    428b        .B      CMP      r3,r1
        0x00000384:    d311        ..      BCC      0x3aa ; __aeabi_idiv + 30
        0x00000386:    2300        .#      MOVS     r3,#0
        0x00000388:    469c        .F      MOV      r12,r3
        0x0000038a:    e04e        N.      B        0x42a ; __aeabi_idiv + 158
    __aeabi_idiv
    __aeabi_idivmod
        0x0000038c:    4603        .F      MOV      r3,r0
        0x0000038e:    430b        .C      ORRS     r3,r3,r1
        0x00000390:    d43c        <.      BMI      0x40c ; __aeabi_idiv + 128
        0x00000392:    2200        ."      MOVS     r2,#0
        0x00000394:    0843        C.      LSRS     r3,r0,#1
        0x00000396:    428b        .B      CMP      r3,r1
        0x00000398:    d331        1.      BCC      0x3fe ; __aeabi_idiv + 114
        0x0000039a:    0903        ..      LSRS     r3,r0,#4
        0x0000039c:    428b        .B      CMP      r3,r1
        0x0000039e:    d31c        ..      BCC      0x3da ; __aeabi_idiv + 78
        0x000003a0:    0a03        ..      LSRS     r3,r0,#8
        0x000003a2:    428b        .B      CMP      r3,r1
        0x000003a4:    d301        ..      BCC      0x3aa ; __aeabi_idiv + 30
        0x000003a6:    4694        .F      MOV      r12,r2
        0x000003a8:    e03f        ?.      B        0x42a ; __aeabi_idiv + 158
        0x000003aa:    09c3        ..      LSRS     r3,r0,#7
        0x000003ac:    428b        .B      CMP      r3,r1
        0x000003ae:    d301        ..      BCC      0x3b4 ; __aeabi_idiv + 40
        0x000003b0:    01cb        ..      LSLS     r3,r1,#7
        0x000003b2:    1ac0        ..      SUBS     r0,r0,r3
        0x000003b4:    4152        RA      ADCS     r2,r2,r2
        0x000003b6:    0983        ..      LSRS     r3,r0,#6
        0x000003b8:    428b        .B      CMP      r3,r1
        0x000003ba:    d301        ..      BCC      0x3c0 ; __aeabi_idiv + 52
        0x000003bc:    018b        ..      LSLS     r3,r1,#6
        0x000003be:    1ac0        ..      SUBS     r0,r0,r3
        0x000003c0:    4152        RA      ADCS     r2,r2,r2
        0x000003c2:    0943        C.      LSRS     r3,r0,#5
        0x000003c4:    428b        .B      CMP      r3,r1
        0x000003c6:    d301        ..      BCC      0x3cc ; __aeabi_idiv + 64
        0x000003c8:    014b        K.      LSLS     r3,r1,#5
        0x000003ca:    1ac0        ..      SUBS     r0,r0,r3
        0x000003cc:    4152        RA      ADCS     r2,r2,r2
        0x000003ce:    0903        ..      LSRS     r3,r0,#4
        0x000003d0:    428b        .B      CMP      r3,r1
        0x000003d2:    d301        ..      BCC      0x3d8 ; __aeabi_idiv + 76
        0x000003d4:    010b        ..      LSLS     r3,r1,#4
        0x000003d6:    1ac0        ..      SUBS     r0,r0,r3
        0x000003d8:    4152        RA      ADCS     r2,r2,r2
        0x000003da:    08c3        ..      LSRS     r3,r0,#3
        0x000003dc:    428b        .B      CMP      r3,r1
        0x000003de:    d301        ..      BCC      0x3e4 ; __aeabi_idiv + 88
        0x000003e0:    00cb        ..      LSLS     r3,r1,#3
        0x000003e2:    1ac0        ..      SUBS     r0,r0,r3
        0x000003e4:    4152        RA      ADCS     r2,r2,r2
        0x000003e6:    0883        ..      LSRS     r3,r0,#2
        0x000003e8:    428b        .B      CMP      r3,r1
        0x000003ea:    d301        ..      BCC      0x3f0 ; __aeabi_idiv + 100
        0x000003ec:    008b        ..      LSLS     r3,r1,#2
        0x000003ee:    1ac0        ..      SUBS     r0,r0,r3
        0x000003f0:    4152        RA      ADCS     r2,r2,r2
        0x000003f2:    0843        C.      LSRS     r3,r0,#1
        0x000003f4:    428b        .B      CMP      r3,r1
        0x000003f6:    d301        ..      BCC      0x3fc ; __aeabi_idiv + 112
        0x000003f8:    004b        K.      LSLS     r3,r1,#1
        0x000003fa:    1ac0        ..      SUBS     r0,r0,r3
        0x000003fc:    4152        RA      ADCS     r2,r2,r2
        0x000003fe:    1a41        A.      SUBS     r1,r0,r1
        0x00000400:    d200        ..      BCS      0x404 ; __aeabi_idiv + 120
        0x00000402:    4601        .F      MOV      r1,r0
        0x00000404:    4152        RA      ADCS     r2,r2,r2
        0x00000406:    4610        .F      MOV      r0,r2
        0x00000408:    4770        pG      BX       lr
        0x0000040a:    e05d        ].      B        0x4c8 ; __aeabi_idiv + 316
        0x0000040c:    0fca        ..      LSRS     r2,r1,#31
        0x0000040e:    d000        ..      BEQ      0x412 ; __aeabi_idiv + 134
        0x00000410:    4249        IB      RSBS     r1,r1,#0
        0x00000412:    1003        ..      ASRS     r3,r0,#32
        0x00000414:    d300        ..      BCC      0x418 ; __aeabi_idiv + 140
        0x00000416:    4240        @B      RSBS     r0,r0,#0
        0x00000418:    4053        S@      EORS     r3,r3,r2
        0x0000041a:    2200        ."      MOVS     r2,#0
        0x0000041c:    469c        .F      MOV      r12,r3
        0x0000041e:    0903        ..      LSRS     r3,r0,#4
        0x00000420:    428b        .B      CMP      r3,r1
        0x00000422:    d32d        -.      BCC      0x480 ; __aeabi_idiv + 244
        0x00000424:    0a03        ..      LSRS     r3,r0,#8
        0x00000426:    428b        .B      CMP      r3,r1
        0x00000428:    d312        ..      BCC      0x450 ; __aeabi_idiv + 196
        0x0000042a:    22fc        ."      MOVS     r2,#0xfc
        0x0000042c:    0189        ..      LSLS     r1,r1,#6
        0x0000042e:    ba12        ..      REV      r2,r2
        0x00000430:    0a03        ..      LSRS     r3,r0,#8
        0x00000432:    428b        .B      CMP      r3,r1
        0x00000434:    d30c        ..      BCC      0x450 ; __aeabi_idiv + 196
        0x00000436:    0189        ..      LSLS     r1,r1,#6
        0x00000438:    1192        ..      ASRS     r2,r2,#6
        0x0000043a:    428b        .B      CMP      r3,r1
        0x0000043c:    d308        ..      BCC      0x450 ; __aeabi_idiv + 196
        0x0000043e:    0189        ..      LSLS     r1,r1,#6
        0x00000440:    1192        ..      ASRS     r2,r2,#6
        0x00000442:    428b        .B      CMP      r3,r1
        0x00000444:    d304        ..      BCC      0x450 ; __aeabi_idiv + 196
        0x00000446:    0189        ..      LSLS     r1,r1,#6
        0x00000448:    d03a        :.      BEQ      0x4c0 ; __aeabi_idiv + 308
        0x0000044a:    1192        ..      ASRS     r2,r2,#6
        0x0000044c:    e000        ..      B        0x450 ; __aeabi_idiv + 196
        0x0000044e:    0989        ..      LSRS     r1,r1,#6
        0x00000450:    09c3        ..      LSRS     r3,r0,#7
        0x00000452:    428b        .B      CMP      r3,r1
        0x00000454:    d301        ..      BCC      0x45a ; __aeabi_idiv + 206
        0x00000456:    01cb        ..      LSLS     r3,r1,#7
        0x00000458:    1ac0        ..      SUBS     r0,r0,r3
        0x0000045a:    4152        RA      ADCS     r2,r2,r2
        0x0000045c:    0983        ..      LSRS     r3,r0,#6
        0x0000045e:    428b        .B      CMP      r3,r1
        0x00000460:    d301        ..      BCC      0x466 ; __aeabi_idiv + 218
        0x00000462:    018b        ..      LSLS     r3,r1,#6
        0x00000464:    1ac0        ..      SUBS     r0,r0,r3
        0x00000466:    4152        RA      ADCS     r2,r2,r2
        0x00000468:    0943        C.      LSRS     r3,r0,#5
        0x0000046a:    428b        .B      CMP      r3,r1
        0x0000046c:    d301        ..      BCC      0x472 ; __aeabi_idiv + 230
        0x0000046e:    014b        K.      LSLS     r3,r1,#5
        0x00000470:    1ac0        ..      SUBS     r0,r0,r3
        0x00000472:    4152        RA      ADCS     r2,r2,r2
        0x00000474:    0903        ..      LSRS     r3,r0,#4
        0x00000476:    428b        .B      CMP      r3,r1
        0x00000478:    d301        ..      BCC      0x47e ; __aeabi_idiv + 242
        0x0000047a:    010b        ..      LSLS     r3,r1,#4
        0x0000047c:    1ac0        ..      SUBS     r0,r0,r3
        0x0000047e:    4152        RA      ADCS     r2,r2,r2
        0x00000480:    08c3        ..      LSRS     r3,r0,#3
        0x00000482:    428b        .B      CMP      r3,r1
        0x00000484:    d301        ..      BCC      0x48a ; __aeabi_idiv + 254
        0x00000486:    00cb        ..      LSLS     r3,r1,#3
        0x00000488:    1ac0        ..      SUBS     r0,r0,r3
        0x0000048a:    4152        RA      ADCS     r2,r2,r2
        0x0000048c:    0883        ..      LSRS     r3,r0,#2
        0x0000048e:    428b        .B      CMP      r3,r1
        0x00000490:    d301        ..      BCC      0x496 ; __aeabi_idiv + 266
        0x00000492:    008b        ..      LSLS     r3,r1,#2
        0x00000494:    1ac0        ..      SUBS     r0,r0,r3
        0x00000496:    4152        RA      ADCS     r2,r2,r2
        0x00000498:    d2d9        ..      BCS      0x44e ; __aeabi_idiv + 194
        0x0000049a:    0843        C.      LSRS     r3,r0,#1
        0x0000049c:    428b        .B      CMP      r3,r1
        0x0000049e:    d301        ..      BCC      0x4a4 ; __aeabi_idiv + 280
        0x000004a0:    004b        K.      LSLS     r3,r1,#1
        0x000004a2:    1ac0        ..      SUBS     r0,r0,r3
        0x000004a4:    4152        RA      ADCS     r2,r2,r2
        0x000004a6:    1a41        A.      SUBS     r1,r0,r1
        0x000004a8:    d200        ..      BCS      0x4ac ; __aeabi_idiv + 288
        0x000004aa:    4601        .F      MOV      r1,r0
        0x000004ac:    4663        cF      MOV      r3,r12
        0x000004ae:    4152        RA      ADCS     r2,r2,r2
        0x000004b0:    105b        [.      ASRS     r3,r3,#1
        0x000004b2:    4610        .F      MOV      r0,r2
        0x000004b4:    d301        ..      BCC      0x4ba ; __aeabi_idiv + 302
        0x000004b6:    4240        @B      RSBS     r0,r0,#0
        0x000004b8:    2b00        .+      CMP      r3,#0
        0x000004ba:    d500        ..      BPL      0x4be ; __aeabi_idiv + 306
        0x000004bc:    4249        IB      RSBS     r1,r1,#0
        0x000004be:    4770        pG      BX       lr
        0x000004c0:    4663        cF      MOV      r3,r12
        0x000004c2:    105b        [.      ASRS     r3,r3,#1
        0x000004c4:    d300        ..      BCC      0x4c8 ; __aeabi_idiv + 316
        0x000004c6:    4240        @B      RSBS     r0,r0,#0
        0x000004c8:    b501        ..      PUSH     {r0,lr}
        0x000004ca:    2000        .       MOVS     r0,#0
        0x000004cc:    46c0        .F      MOV      r8,r8
        0x000004ce:    46c0        .F      MOV      r8,r8
        0x000004d0:    bd02        ..      POP      {r1,pc}
    .text
    __use_two_region_memory
        0x000004d2:    4770        pG      BX       lr
    __rt_heap_escrow$2region
        0x000004d4:    4770        pG      BX       lr
    __rt_heap_expand$2region
        0x000004d6:    4770        pG      BX       lr
    .text
    _dadd1
        0x000004d8:    b5f0        ..      PUSH     {r4-r7,lr}
        0x000004da:    460c        .F      MOV      r4,r1
        0x000004dc:    1a87        ..      SUBS     r7,r0,r2
        0x000004de:    419c        .A      SBCS     r4,r4,r3
        0x000004e0:    460d        .F      MOV      r5,r1
        0x000004e2:    1a86        ..      SUBS     r6,r0,r2
        0x000004e4:    419d        .A      SBCS     r5,r5,r3
        0x000004e6:    d203        ..      BCS      0x4f0 ; _dadd1 + 24
        0x000004e8:    1bc0        ..      SUBS     r0,r0,r7
        0x000004ea:    41a1        .A      SBCS     r1,r1,r4
        0x000004ec:    19d2        ..      ADDS     r2,r2,r7
        0x000004ee:    4163        cA      ADCS     r3,r3,r4
        0x000004f0:    0d0d        ..      LSRS     r5,r1,#20
        0x000004f2:    0d1f        ..      LSRS     r7,r3,#20
        0x000004f4:    4ec5        .N      LDR      r6,[pc,#788] ; [0x80c] = 0x7ff
        0x000004f6:    1bec        ..      SUBS     r4,r5,r7
        0x000004f8:    43ae        .C      BICS     r6,r6,r5
        0x000004fa:    d05b        [.      BEQ      0x5b4 ; _dadd1 + 220
        0x000004fc:    057e        ~.      LSLS     r6,r7,#21
        0x000004fe:    0d76        v.      LSRS     r6,r6,#21
        0x00000500:    d052        R.      BEQ      0x5a8 ; _dadd1 + 208
        0x00000502:    052d        -.      LSLS     r5,r5,#20
        0x00000504:    46ac        .F      MOV      r12,r5
        0x00000506:    43a9        .C      BICS     r1,r1,r5
        0x00000508:    02dd        ..      LSLS     r5,r3,#11
        0x0000050a:    2301        .#      MOVS     r3,#1
        0x0000050c:    0aed        ..      LSRS     r5,r5,#11
        0x0000050e:    051b        ..      LSLS     r3,r3,#20
        0x00000510:    431d        .C      ORRS     r5,r5,r3
        0x00000512:    2320         #      MOVS     r3,#0x20
        0x00000514:    1b1b        ..      SUBS     r3,r3,r4
        0x00000516:    d424        $.      BMI      0x562 ; _dadd1 + 138
        0x00000518:    4616        .F      MOV      r6,r2
        0x0000051a:    40e6        .@      LSRS     r6,r6,r4
        0x0000051c:    2700        .'      MOVS     r7,#0
        0x0000051e:    1830        0.      ADDS     r0,r6,r0
        0x00000520:    414f        OA      ADCS     r7,r7,r1
        0x00000522:    4629        )F      MOV      r1,r5
        0x00000524:    40e1        .@      LSRS     r1,r1,r4
        0x00000526:    187c        |.      ADDS     r4,r7,r1
        0x00000528:    409d        .@      LSLS     r5,r5,r3
        0x0000052a:    2100        .!      MOVS     r1,#0
        0x0000052c:    1828        (.      ADDS     r0,r5,r0
        0x0000052e:    4161        aA      ADCS     r1,r1,r4
        0x00000530:    0d0c        ..      LSRS     r4,r1,#20
        0x00000532:    d127        '.      BNE      0x584 ; _dadd1 + 172
        0x00000534:    4461        aD      ADD      r1,r1,r12
        0x00000536:    409a        .@      LSLS     r2,r2,r3
        0x00000538:    d512        ..      BPL      0x560 ; _dadd1 + 136
        0x0000053a:    2300        .#      MOVS     r3,#0
        0x0000053c:    1c40        @.      ADDS     r0,r0,#1
        0x0000053e:    4159        YA      ADCS     r1,r1,r3
        0x00000540:    0052        R.      LSLS     r2,r2,#1
        0x00000542:    d10d        ..      BNE      0x560 ; _dadd1 + 136
        0x00000544:    0840        @.      LSRS     r0,r0,#1
        0x00000546:    0040        @.      LSLS     r0,r0,#1
        0x00000548:    4ab1        .J      LDR      r2,[pc,#708] ; [0x810] = 0xffe00000
        0x0000054a:    004b        K.      LSLS     r3,r1,#1
        0x0000054c:    4293        .B      CMP      r3,r2
        0x0000054e:    d307        ..      BCC      0x560 ; _dadd1 + 136
        0x00000550:    2005        .       MOVS     r0,#5
        0x00000552:    0740        @.      LSLS     r0,r0,#29
        0x00000554:    1808        ..      ADDS     r0,r1,r0
        0x00000556:    d501        ..      BPL      0x55c ; _dadd1 + 132
        0x00000558:    1051        Q.      ASRS     r1,r2,#1
        0x0000055a:    e000        ..      B        0x55e ; _dadd1 + 134
        0x0000055c:    49ad        .I      LDR      r1,[pc,#692] ; [0x814] = 0x7ff00000
        0x0000055e:    2000        .       MOVS     r0,#0
        0x00000560:    bdf0        ..      POP      {r4-r7,pc}
        0x00000562:    006b        k.      LSLS     r3,r5,#1
        0x00000564:    2a00        .*      CMP      r2,#0
        0x00000566:    d000        ..      BEQ      0x56a ; _dadd1 + 146
        0x00000568:    2201        ."      MOVS     r2,#1
        0x0000056a:    189a        ..      ADDS     r2,r3,r2
        0x0000056c:    3c20         <      SUBS     r4,r4,#0x20
        0x0000056e:    231f        .#      MOVS     r3,#0x1f
        0x00000570:    1b1b        ..      SUBS     r3,r3,r4
        0x00000572:    d501        ..      BPL      0x578 ; _dadd1 + 160
        0x00000574:    2300        .#      MOVS     r3,#0
        0x00000576:    e003        ..      B        0x580 ; _dadd1 + 168
        0x00000578:    40e5        .@      LSRS     r5,r5,r4
        0x0000057a:    2400        .$      MOVS     r4,#0
        0x0000057c:    1828        (.      ADDS     r0,r5,r0
        0x0000057e:    4161        aA      ADCS     r1,r1,r4
        0x00000580:    0d0c        ..      LSRS     r4,r1,#20
        0x00000582:    d0d7        ..      BEQ      0x534 ; _dadd1 + 92
        0x00000584:    2401        .$      MOVS     r4,#1
        0x00000586:    0524        $.      LSLS     r4,r4,#20
        0x00000588:    1909        ..      ADDS     r1,r1,r4
        0x0000058a:    07c4        ..      LSLS     r4,r0,#31
        0x0000058c:    07cd        ..      LSLS     r5,r1,#31
        0x0000058e:    0840        @.      LSRS     r0,r0,#1
        0x00000590:    0849        I.      LSRS     r1,r1,#1
        0x00000592:    0fe4        ..      LSRS     r4,r4,#31
        0x00000594:    4328        (C      ORRS     r0,r0,r5
        0x00000596:    4461        aD      ADD      r1,r1,r12
        0x00000598:    2c00        .,      CMP      r4,#0
        0x0000059a:    d0d5        ..      BEQ      0x548 ; _dadd1 + 112
        0x0000059c:    2400        .$      MOVS     r4,#0
        0x0000059e:    1c40        @.      ADDS     r0,r0,#1
        0x000005a0:    4161        aA      ADCS     r1,r1,r4
        0x000005a2:    409a        .@      LSLS     r2,r2,r3
        0x000005a4:    d1d0        ..      BNE      0x548 ; _dadd1 + 112
        0x000005a6:    e7cd        ..      B        0x544 ; _dadd1 + 108
        0x000005a8:    056a        j.      LSLS     r2,r5,#21
        0x000005aa:    0d52        R.      LSRS     r2,r2,#21
        0x000005ac:    d1d8        ..      BNE      0x560 ; _dadd1 + 136
        0x000005ae:    0fc9        ..      LSRS     r1,r1,#31
        0x000005b0:    07c9        ..      LSLS     r1,r1,#31
        0x000005b2:    e7d4        ..      B        0x55e ; _dadd1 + 134
        0x000005b4:    4d96        .M      LDR      r5,[pc,#600] ; [0x810] = 0xffe00000
        0x000005b6:    004e        N.      LSLS     r6,r1,#1
        0x000005b8:    2800        .(      CMP      r0,#0
        0x000005ba:    d001        ..      BEQ      0x5c0 ; _dadd1 + 232
        0x000005bc:    2401        .$      MOVS     r4,#1
        0x000005be:    e000        ..      B        0x5c2 ; _dadd1 + 234
        0x000005c0:    2400        .$      MOVS     r4,#0
        0x000005c2:    1934        4.      ADDS     r4,r6,r4
        0x000005c4:    005f        _.      LSLS     r7,r3,#1
        0x000005c6:    2a00        .*      CMP      r2,#0
        0x000005c8:    d001        ..      BEQ      0x5ce ; _dadd1 + 246
        0x000005ca:    2601        .&      MOVS     r6,#1
        0x000005cc:    e000        ..      B        0x5d0 ; _dadd1 + 248
        0x000005ce:    2600        .&      MOVS     r6,#0
        0x000005d0:    19be        ..      ADDS     r6,r7,r6
        0x000005d2:    4f91        .O      LDR      r7,[pc,#580] ; [0x818] = 0x7ff80000
        0x000005d4:    42ac        .B      CMP      r4,r5
        0x000005d6:    d80b        ..      BHI      0x5f0 ; _dadd1 + 280
        0x000005d8:    42ae        .B      CMP      r6,r5
        0x000005da:    d809        ..      BHI      0x5f0 ; _dadd1 + 280
        0x000005dc:    42b4        .B      CMP      r4,r6
        0x000005de:    d005        ..      BEQ      0x5ec ; _dadd1 + 276
        0x000005e0:    00bd        ..      LSLS     r5,r7,#2
        0x000005e2:    42ac        .B      CMP      r4,r5
        0x000005e4:    d0bc        ..      BEQ      0x560 ; _dadd1 + 136
        0x000005e6:    4610        .F      MOV      r0,r2
        0x000005e8:    4619        .F      MOV      r1,r3
        0x000005ea:    bdf0        ..      POP      {r4-r7,pc}
        0x000005ec:    4299        .B      CMP      r1,r3
        0x000005ee:    d0fc        ..      BEQ      0x5ea ; _dadd1 + 274
        0x000005f0:    2000        .       MOVS     r0,#0
        0x000005f2:    4639        9F      MOV      r1,r7
        0x000005f4:    bdf0        ..      POP      {r4-r7,pc}
    _dsub1
        0x000005f6:    b5f0        ..      PUSH     {r4-r7,lr}
        0x000005f8:    460c        .F      MOV      r4,r1
        0x000005fa:    460f        .F      MOV      r7,r1
        0x000005fc:    1a81        ..      SUBS     r1,r0,r2
        0x000005fe:    419f        .A      SBCS     r7,r7,r3
        0x00000600:    4625        %F      MOV      r5,r4
        0x00000602:    1a86        ..      SUBS     r6,r0,r2
        0x00000604:    419d        .A      SBCS     r5,r5,r3
        0x00000606:    d206        ..      BCS      0x616 ; _dsub1 + 32
        0x00000608:    2501        .%      MOVS     r5,#1
        0x0000060a:    07ed        ..      LSLS     r5,r5,#31
        0x0000060c:    406f        o@      EORS     r7,r7,r5
        0x0000060e:    1a40        @.      SUBS     r0,r0,r1
        0x00000610:    41bc        .A      SBCS     r4,r4,r7
        0x00000612:    1852        R.      ADDS     r2,r2,r1
        0x00000614:    417b        {A      ADCS     r3,r3,r7
        0x00000616:    0d21        !.      LSRS     r1,r4,#20
        0x00000618:    0d1e        ..      LSRS     r6,r3,#20
        0x0000061a:    1b8d        ..      SUBS     r5,r1,r6
        0x0000061c:    46ac        .F      MOV      r12,r5
        0x0000061e:    4d7b        {M      LDR      r5,[pc,#492] ; [0x80c] = 0x7ff
        0x00000620:    438d        .C      BICS     r5,r5,r1
        0x00000622:    d07e        ~.      BEQ      0x722 ; _dsub1 + 300
        0x00000624:    0575        u.      LSLS     r5,r6,#21
        0x00000626:    0d6d        m.      LSRS     r5,r5,#21
        0x00000628:    d07c        |.      BEQ      0x724 ; _dsub1 + 302
        0x0000062a:    050d        ..      LSLS     r5,r1,#20
        0x0000062c:    46ae        .F      MOV      lr,r5
        0x0000062e:    43ac        .C      BICS     r4,r4,r5
        0x00000630:    031b        ..      LSLS     r3,r3,#12
        0x00000632:    0b1b        ..      LSRS     r3,r3,#12
        0x00000634:    4d79        yM      LDR      r5,[pc,#484] ; [0x81c] = 0xfff00000
        0x00000636:    4252        RB      RSBS     r2,r2,#0
        0x00000638:    419d        .A      SBCS     r5,r5,r3
        0x0000063a:    2320         #      MOVS     r3,#0x20
        0x0000063c:    4666        fF      MOV      r6,r12
        0x0000063e:    1b9b        ..      SUBS     r3,r3,r6
        0x00000640:    d314        ..      BCC      0x66c ; _dsub1 + 118
        0x00000642:    4637        7F      MOV      r7,r6
        0x00000644:    4616        .F      MOV      r6,r2
        0x00000646:    40fe        .@      LSRS     r6,r6,r7
        0x00000648:    1830        0.      ADDS     r0,r6,r0
        0x0000064a:    2700        .'      MOVS     r7,#0
        0x0000064c:    4167        gA      ADCS     r7,r7,r4
        0x0000064e:    4664        dF      MOV      r4,r12
        0x00000650:    462e        .F      MOV      r6,r5
        0x00000652:    4126        &A      ASRS     r6,r6,r4
        0x00000654:    19bc        ..      ADDS     r4,r7,r6
        0x00000656:    409d        .@      LSLS     r5,r5,r3
        0x00000658:    2600        .&      MOVS     r6,#0
        0x0000065a:    1828        (.      ADDS     r0,r5,r0
        0x0000065c:    4166        fA      ADCS     r6,r6,r4
        0x0000065e:    d416        ..      BMI      0x68e ; _dsub1 + 152
        0x00000660:    4671        qF      MOV      r1,lr
        0x00000662:    1871        q.      ADDS     r1,r6,r1
        0x00000664:    409a        .@      LSLS     r2,r2,r3
        0x00000666:    d525        %.      BPL      0x6b4 ; _dsub1 + 190
        0x00000668:    2301        .#      MOVS     r3,#1
        0x0000066a:    e020         .      B        0x6ae ; _dsub1 + 184
        0x0000066c:    1893        ..      ADDS     r3,r2,r2
        0x0000066e:    462a        *F      MOV      r2,r5
        0x00000670:    416a        jA      ADCS     r2,r2,r5
        0x00000672:    0052        R.      LSLS     r2,r2,#1
        0x00000674:    2b00        .+      CMP      r3,#0
        0x00000676:    d000        ..      BEQ      0x67a ; _dsub1 + 132
        0x00000678:    1c52        R.      ADDS     r2,r2,#1
        0x0000067a:    3e20         >      SUBS     r6,r6,#0x20
        0x0000067c:    231e        .#      MOVS     r3,#0x1e
        0x0000067e:    1b9b        ..      SUBS     r3,r3,r6
        0x00000680:    2b00        .+      CMP      r3,#0
        0x00000682:    dd60        `.      BLE      0x746 ; _dsub1 + 336
        0x00000684:    4135        5A      ASRS     r5,r5,r6
        0x00000686:    17ee        ..      ASRS     r6,r5,#31
        0x00000688:    1828        (.      ADDS     r0,r5,r0
        0x0000068a:    4166        fA      ADCS     r6,r6,r4
        0x0000068c:    d5e8        ..      BPL      0x660 ; _dsub1 + 106
        0x0000068e:    1800        ..      ADDS     r0,r0,r0
        0x00000690:    4176        vA      ADCS     r6,r6,r6
        0x00000692:    1c5b        [.      ADDS     r3,r3,#1
        0x00000694:    409a        .@      LSLS     r2,r2,r3
        0x00000696:    d300        ..      BCC      0x69a ; _dsub1 + 164
        0x00000698:    1c40        @.      ADDS     r0,r0,#1
        0x0000069a:    054b        K.      LSLS     r3,r1,#21
        0x0000069c:    18f3        ..      ADDS     r3,r6,r3
        0x0000069e:    2415        .$      MOVS     r4,#0x15
        0x000006a0:    40e3        .@      LSRS     r3,r3,r4
        0x000006a2:    d30f        ..      BCC      0x6c4 ; _dsub1 + 206
        0x000006a4:    2b00        .+      CMP      r3,#0
        0x000006a6:    d051        Q.      BEQ      0x74c ; _dsub1 + 342
        0x000006a8:    4671        qF      MOV      r1,lr
        0x000006aa:    1871        q.      ADDS     r1,r6,r1
        0x000006ac:    0fd3        ..      LSRS     r3,r2,#31
        0x000006ae:    18c0        ..      ADDS     r0,r0,r3
        0x000006b0:    d301        ..      BCC      0x6b6 ; _dsub1 + 192
        0x000006b2:    1c49        I.      ADDS     r1,r1,#1
        0x000006b4:    bdf0        ..      POP      {r4-r7,pc}
        0x000006b6:    2301        .#      MOVS     r3,#1
        0x000006b8:    07db        ..      LSLS     r3,r3,#31
        0x000006ba:    429a        .B      CMP      r2,r3
        0x000006bc:    d1fa        ..      BNE      0x6b4 ; _dsub1 + 190
        0x000006be:    0840        @.      LSRS     r0,r0,#1
        0x000006c0:    0040        @.      LSLS     r0,r0,#1
        0x000006c2:    bdf0        ..      POP      {r4-r7,pc}
        0x000006c4:    2201        ."      MOVS     r2,#1
        0x000006c6:    0552        R.      LSLS     r2,r2,#21
        0x000006c8:    18b2        ..      ADDS     r2,r6,r2
        0x000006ca:    d101        ..      BNE      0x6d0 ; _dsub1 + 218
        0x000006cc:    2800        .(      CMP      r0,#0
        0x000006ce:    d053        S.      BEQ      0x778 ; _dsub1 + 386
        0x000006d0:    2301        .#      MOVS     r3,#1
        0x000006d2:    0acc        ..      LSRS     r4,r1,#11
        0x000006d4:    02db        ..      LSLS     r3,r3,#11
        0x000006d6:    4399        .C      BICS     r1,r1,r3
        0x000006d8:    1e89        ..      SUBS     r1,r1,#2
        0x000006da:    2a00        .*      CMP      r2,#0
        0x000006dc:    d108        ..      BNE      0x6f0 ; _dsub1 + 250
        0x000006de:    0c02        ..      LSRS     r2,r0,#16
        0x000006e0:    d003        ..      BEQ      0x6ea ; _dsub1 + 244
        0x000006e2:    0c02        ..      LSRS     r2,r0,#16
        0x000006e4:    0400        ..      LSLS     r0,r0,#16
        0x000006e6:    3910        .9      SUBS     r1,r1,#0x10
        0x000006e8:    e002        ..      B        0x6f0 ; _dsub1 + 250
        0x000006ea:    4602        .F      MOV      r2,r0
        0x000006ec:    2000        .       MOVS     r0,#0
        0x000006ee:    3920         9      SUBS     r1,r1,#0x20
        0x000006f0:    2300        .#      MOVS     r3,#0
        0x000006f2:    0b55        U.      LSRS     r5,r2,#13
        0x000006f4:    d105        ..      BNE      0x702 ; _dsub1 + 268
        0x000006f6:    0212        ..      LSLS     r2,r2,#8
        0x000006f8:    2308        .#      MOVS     r3,#8
        0x000006fa:    0b55        U.      LSRS     r5,r2,#13
        0x000006fc:    d101        ..      BNE      0x702 ; _dsub1 + 268
        0x000006fe:    0152        R.      LSLS     r2,r2,#5
        0x00000700:    230d        .#      MOVS     r3,#0xd
        0x00000702:    0c55        U.      LSRS     r5,r2,#17
        0x00000704:    d101        ..      BNE      0x70a ; _dsub1 + 276
        0x00000706:    0112        ..      LSLS     r2,r2,#4
        0x00000708:    1d1b        ..      ADDS     r3,r3,#4
        0x0000070a:    0cd5        ..      LSRS     r5,r2,#19
        0x0000070c:    d101        ..      BNE      0x712 ; _dsub1 + 284
        0x0000070e:    0092        ..      LSLS     r2,r2,#2
        0x00000710:    1c9b        ..      ADDS     r3,r3,#2
        0x00000712:    0d15        ..      LSRS     r5,r2,#20
        0x00000714:    d101        ..      BNE      0x71a ; _dsub1 + 292
        0x00000716:    0052        R.      LSLS     r2,r2,#1
        0x00000718:    1c5b        [.      ADDS     r3,r3,#1
        0x0000071a:    2520         %      MOVS     r5,#0x20
        0x0000071c:    1aee        ..      SUBS     r6,r5,r3
        0x0000071e:    4605        .F      MOV      r5,r0
        0x00000720:    e001        ..      B        0x726 ; _dsub1 + 304
        0x00000722:    e02b        +.      B        0x77c ; _dsub1 + 390
        0x00000724:    e021        !.      B        0x76a ; _dsub1 + 372
        0x00000726:    40f5        .@      LSRS     r5,r5,r6
        0x00000728:    4315        .C      ORRS     r5,r5,r2
        0x0000072a:    4098        .@      LSLS     r0,r0,r3
        0x0000072c:    1aca        ..      SUBS     r2,r1,r3
        0x0000072e:    07e1        ..      LSLS     r1,r4,#31
        0x00000730:    1869        i.      ADDS     r1,r5,r1
        0x00000732:    0513        ..      LSLS     r3,r2,#20
        0x00000734:    18c9        ..      ADDS     r1,r1,r3
        0x00000736:    2a00        .*      CMP      r2,#0
        0x00000738:    dac3        ..      BGE      0x6c2 ; _dsub1 + 204
        0x0000073a:    2003        .       MOVS     r0,#3
        0x0000073c:    0740        @.      LSLS     r0,r0,#29
        0x0000073e:    1808        ..      ADDS     r0,r1,r0
        0x00000740:    0fc1        ..      LSRS     r1,r0,#31
        0x00000742:    07c9        ..      LSLS     r1,r1,#31
        0x00000744:    e00f        ..      B        0x766 ; _dsub1 + 368
        0x00000746:    4671        qF      MOV      r1,lr
        0x00000748:    1861        a.      ADDS     r1,r4,r1
        0x0000074a:    bdf0        ..      POP      {r4-r7,pc}
        0x0000074c:    07f1        ..      LSLS     r1,r6,#31
        0x0000074e:    0840        @.      LSRS     r0,r0,#1
        0x00000750:    4308        .C      ORRS     r0,r0,r1
        0x00000752:    1071        q.      ASRS     r1,r6,#1
        0x00000754:    4471        qD      ADD      r1,r1,lr
        0x00000756:    004a        J.      LSLS     r2,r1,#1
        0x00000758:    d00c        ..      BEQ      0x774 ; _dsub1 + 382
        0x0000075a:    2301        .#      MOVS     r3,#1
        0x0000075c:    055b        [.      LSLS     r3,r3,#21
        0x0000075e:    429a        .B      CMP      r2,r3
        0x00000760:    d2f3        ..      BCS      0x74a ; _dsub1 + 340
        0x00000762:    0fc9        ..      LSRS     r1,r1,#31
        0x00000764:    07c9        ..      LSLS     r1,r1,#31
        0x00000766:    2000        .       MOVS     r0,#0
        0x00000768:    bdf0        ..      POP      {r4-r7,pc}
        0x0000076a:    0549        I.      LSLS     r1,r1,#21
        0x0000076c:    0d49        I.      LSRS     r1,r1,#21
        0x0000076e:    d125        %.      BNE      0x7bc ; _dsub1 + 454
        0x00000770:    2000        .       MOVS     r0,#0
        0x00000772:    e001        ..      B        0x778 ; _dsub1 + 386
        0x00000774:    2800        .(      CMP      r0,#0
        0x00000776:    d1f4        ..      BNE      0x762 ; _dsub1 + 364
        0x00000778:    2100        .!      MOVS     r1,#0
        0x0000077a:    bdf0        ..      POP      {r4-r7,pc}
        0x0000077c:    4d24        $M      LDR      r5,[pc,#144] ; [0x810] = 0xffe00000
        0x0000077e:    0066        f.      LSLS     r6,r4,#1
        0x00000780:    2800        .(      CMP      r0,#0
        0x00000782:    d001        ..      BEQ      0x788 ; _dsub1 + 402
        0x00000784:    2101        .!      MOVS     r1,#1
        0x00000786:    e000        ..      B        0x78a ; _dsub1 + 404
        0x00000788:    2100        .!      MOVS     r1,#0
        0x0000078a:    1871        q.      ADDS     r1,r6,r1
        0x0000078c:    005f        _.      LSLS     r7,r3,#1
        0x0000078e:    2a00        .*      CMP      r2,#0
        0x00000790:    d001        ..      BEQ      0x796 ; _dsub1 + 416
        0x00000792:    2601        .&      MOVS     r6,#1
        0x00000794:    e000        ..      B        0x798 ; _dsub1 + 418
        0x00000796:    2600        .&      MOVS     r6,#0
        0x00000798:    19be        ..      ADDS     r6,r7,r6
        0x0000079a:    4f1f        .O      LDR      r7,[pc,#124] ; [0x818] = 0x7ff80000
        0x0000079c:    42a9        .B      CMP      r1,r5
        0x0000079e:    d80f        ..      BHI      0x7c0 ; _dsub1 + 458
        0x000007a0:    42ae        .B      CMP      r6,r5
        0x000007a2:    d80d        ..      BHI      0x7c0 ; _dsub1 + 458
        0x000007a4:    42b1        .B      CMP      r1,r6
        0x000007a6:    d007        ..      BEQ      0x7b8 ; _dsub1 + 450
        0x000007a8:    00bd        ..      LSLS     r5,r7,#2
        0x000007aa:    42a9        .B      CMP      r1,r5
        0x000007ac:    d006        ..      BEQ      0x7bc ; _dsub1 + 454
        0x000007ae:    4619        .F      MOV      r1,r3
        0x000007b0:    02a8        ..      LSLS     r0,r5,#10
        0x000007b2:    4041        A@      EORS     r1,r1,r0
        0x000007b4:    4610        .F      MOV      r0,r2
        0x000007b6:    bdf0        ..      POP      {r4-r7,pc}
        0x000007b8:    429c        .B      CMP      r4,r3
        0x000007ba:    d001        ..      BEQ      0x7c0 ; _dsub1 + 458
        0x000007bc:    4621        !F      MOV      r1,r4
        0x000007be:    bdf0        ..      POP      {r4-r7,pc}
        0x000007c0:    2000        .       MOVS     r0,#0
        0x000007c2:    4639        9F      MOV      r1,r7
        0x000007c4:    bdf0        ..      POP      {r4-r7,pc}
    __aeabi_dadd
    _dadd
        0x000007c6:    b430        0.      PUSH     {r4,r5}
        0x000007c8:    460c        .F      MOV      r4,r1
        0x000007ca:    405c        \@      EORS     r4,r4,r3
        0x000007cc:    d504        ..      BPL      0x7d8 ; __aeabi_dadd + 18
        0x000007ce:    2401        .$      MOVS     r4,#1
        0x000007d0:    07e4        ..      LSLS     r4,r4,#31
        0x000007d2:    4063        c@      EORS     r3,r3,r4
        0x000007d4:    bc30        0.      POP      {r4,r5}
        0x000007d6:    e70e        ..      B        _dsub1 ; 0x5f6
        0x000007d8:    bc30        0.      POP      {r4,r5}
        0x000007da:    e67d        }.      B        _dadd1 ; 0x4d8
    __aeabi_dsub
    _dsub
        0x000007dc:    b430        0.      PUSH     {r4,r5}
        0x000007de:    460c        .F      MOV      r4,r1
        0x000007e0:    405c        \@      EORS     r4,r4,r3
        0x000007e2:    d504        ..      BPL      0x7ee ; __aeabi_dsub + 18
        0x000007e4:    2401        .$      MOVS     r4,#1
        0x000007e6:    07e4        ..      LSLS     r4,r4,#31
        0x000007e8:    4063        c@      EORS     r3,r3,r4
        0x000007ea:    bc30        0.      POP      {r4,r5}
        0x000007ec:    e674        t.      B        _dadd1 ; 0x4d8
        0x000007ee:    bc30        0.      POP      {r4,r5}
        0x000007f0:    e701        ..      B        _dsub1 ; 0x5f6
    __aeabi_drsub
    _drsb
        0x000007f2:    b430        0.      PUSH     {r4,r5}
        0x000007f4:    2401        .$      MOVS     r4,#1
        0x000007f6:    07e4        ..      LSLS     r4,r4,#31
        0x000007f8:    4061        a@      EORS     r1,r1,r4
        0x000007fa:    460d        .F      MOV      r5,r1
        0x000007fc:    405d        ]@      EORS     r5,r5,r3
        0x000007fe:    d401        ..      BMI      0x804 ; __aeabi_drsub + 18
        0x00000800:    bc30        0.      POP      {r4,r5}
        0x00000802:    e669        i.      B        _dadd1 ; 0x4d8
        0x00000804:    4063        c@      EORS     r3,r3,r4
        0x00000806:    bc30        0.      POP      {r4,r5}
        0x00000808:    e6f5        ..      B        _dsub1 ; 0x5f6
    $d
        0x0000080a:    0000        ..      DCW    0
        0x0000080c:    000007ff    ....    DCD    2047
        0x00000810:    ffe00000    ....    DCD    4292870144
        0x00000814:    7ff00000    ....    DCD    2146435072
        0x00000818:    7ff80000    ....    DCD    2146959360
        0x0000081c:    fff00000    ....    DCD    4293918720
    $t
    .text
    __aeabi_ddiv
    _ddiv
        0x00000820:    b5f0        ..      PUSH     {r4-r7,lr}
        0x00000822:    4694        .F      MOV      r12,r2
        0x00000824:    4afb        .J      LDR      r2,[pc,#1004] ; [0xc14] = 0x7ff0000
        0x00000826:    090e        ..      LSRS     r6,r1,#4
        0x00000828:    091d        ..      LSRS     r5,r3,#4
        0x0000082a:    4617        .F      MOV      r7,r2
        0x0000082c:    4016        .@      ANDS     r6,r6,r2
        0x0000082e:    4015        .@      ANDS     r5,r5,r2
        0x00000830:    460c        .F      MOV      r4,r1
        0x00000832:    43b2        .C      BICS     r2,r2,r6
        0x00000834:    405c        \@      EORS     r4,r4,r3
        0x00000836:    b08b        ..      SUB      sp,sp,#0x2c
        0x00000838:    2a00        .*      CMP      r2,#0
        0x0000083a:    d07e        ~.      BEQ      0x93a ; __aeabi_ddiv + 282
        0x0000083c:    43af        .C      BICS     r7,r7,r5
        0x0000083e:    d07c        |.      BEQ      0x93a ; __aeabi_ddiv + 282
        0x00000840:    2d00        .-      CMP      r5,#0
        0x00000842:    d07b        {.      BEQ      0x93c ; __aeabi_ddiv + 284
        0x00000844:    2e00        ..      CMP      r6,#0
        0x00000846:    d079        y.      BEQ      0x93c ; __aeabi_ddiv + 284
        0x00000848:    0fe2        ..      LSRS     r2,r4,#31
        0x0000084a:    4332        2C      ORRS     r2,r2,r6
        0x0000084c:    1b52        R.      SUBS     r2,r2,r5
        0x0000084e:    24ff        .$      MOVS     r4,#0xff
        0x00000850:    04a4        ..      LSLS     r4,r4,#18
        0x00000852:    1912        ..      ADDS     r2,r2,r4
        0x00000854:    9207        ..      STR      r2,[sp,#0x1c]
        0x00000856:    0d42        B.      LSRS     r2,r0,#21
        0x00000858:    02cc        ..      LSLS     r4,r1,#11
        0x0000085a:    02c7        ..      LSLS     r7,r0,#11
        0x0000085c:    4314        .C      ORRS     r4,r4,r2
        0x0000085e:    4660        `F      MOV      r0,r12
        0x00000860:    0d42        B.      LSRS     r2,r0,#21
        0x00000862:    02d9        ..      LSLS     r1,r3,#11
        0x00000864:    4311        .C      ORRS     r1,r1,r2
        0x00000866:    02c2        ..      LSLS     r2,r0,#11
        0x00000868:    2001        .       MOVS     r0,#1
        0x0000086a:    07c0        ..      LSLS     r0,r0,#31
        0x0000086c:    4304        .C      ORRS     r4,r4,r0
        0x0000086e:    4301        .C      ORRS     r1,r1,r0
        0x00000870:    9401        ..      STR      r4,[sp,#4]
        0x00000872:    0c08        ..      LSRS     r0,r1,#16
        0x00000874:    0c14        ..      LSRS     r4,r2,#16
        0x00000876:    46a4        .F      MOV      r12,r4
        0x00000878:    0404        ..      LSLS     r4,r0,#16
        0x0000087a:    460b        .F      MOV      r3,r1
        0x0000087c:    43a3        .C      BICS     r3,r3,r4
        0x0000087e:    9408        ..      STR      r4,[sp,#0x20]
        0x00000880:    4664        dF      MOV      r4,r12
        0x00000882:    0424        $.      LSLS     r4,r4,#16
        0x00000884:    4de4        .M      LDR      r5,[pc,#912] ; [0xc18] = 0x34d8
        0x00000886:    43a2        .C      BICS     r2,r2,r4
        0x00000888:    9409        ..      STR      r4,[sp,#0x24]
        0x0000088a:    0a04        ..      LSRS     r4,r0,#8
        0x0000088c:    447d        }D      ADD      r5,r5,pc
        0x0000088e:    1964        d.      ADDS     r4,r4,r5
        0x00000890:    3c80        .<      SUBS     r4,r4,#0x80
        0x00000892:    7824        $x      LDRB     r4,[r4,#0]
        0x00000894:    4605        .F      MOV      r5,r0
        0x00000896:    4365        eC      MULS     r5,r4,r5
        0x00000898:    2601        .&      MOVS     r6,#1
        0x0000089a:    192d        -.      ADDS     r5,r5,r4
        0x0000089c:    05f6        ..      LSLS     r6,r6,#23
        0x0000089e:    1b75        u.      SUBS     r5,r6,r5
        0x000008a0:    436c        lC      MULS     r4,r5,r4
        0x000008a2:    0ce4        ..      LSRS     r4,r4,#19
        0x000008a4:    1ca4        ..      ADDS     r4,r4,#2
        0x000008a6:    0b49        I.      LSRS     r1,r1,#13
        0x000008a8:    4361        aC      MULS     r1,r4,r1
        0x000008aa:    1909        ..      ADDS     r1,r1,r4
        0x000008ac:    01b5        ..      LSLS     r5,r6,#6
        0x000008ae:    1a69        i.      SUBS     r1,r5,r1
        0x000008b0:    0c0e        ..      LSRS     r6,r1,#16
        0x000008b2:    0435        5.      LSLS     r5,r6,#16
        0x000008b4:    43a9        .C      BICS     r1,r1,r5
        0x000008b6:    4361        aC      MULS     r1,r4,r1
        0x000008b8:    4366        fC      MULS     r6,r4,r6
        0x000008ba:    0c09        ..      LSRS     r1,r1,#16
        0x000008bc:    1871        q.      ADDS     r1,r6,r1
        0x000008be:    0989        ..      LSRS     r1,r1,#6
        0x000008c0:    9106        ..      STR      r1,[sp,#0x18]
        0x000008c2:    07f9        ..      LSLS     r1,r7,#31
        0x000008c4:    d001        ..      BEQ      0x8ca ; __aeabi_ddiv + 170
        0x000008c6:    2101        .!      MOVS     r1,#1
        0x000008c8:    07c9        ..      LSLS     r1,r1,#31
        0x000008ca:    9103        ..      STR      r1,[sp,#0xc]
        0x000008cc:    9901        ..      LDR      r1,[sp,#4]
        0x000008ce:    087f        ..      LSRS     r7,r7,#1
        0x000008d0:    07cc        ..      LSLS     r4,r1,#31
        0x000008d2:    4327        'C      ORRS     r7,r7,r4
        0x000008d4:    084c        L.      LSRS     r4,r1,#1
        0x000008d6:    9d06        ..      LDR      r5,[sp,#0x18]
        0x000008d8:    0be1        ..      LSRS     r1,r4,#15
        0x000008da:    434d        MC      MULS     r5,r1,r5
        0x000008dc:    0c29        ).      LSRS     r1,r5,#16
        0x000008de:    4665        eF      MOV      r5,r12
        0x000008e0:    460e        .F      MOV      r6,r1
        0x000008e2:    434d        MC      MULS     r5,r1,r5
        0x000008e4:    4346        FC      MULS     r6,r0,r6
        0x000008e6:    1b7d        }.      SUBS     r5,r7,r5
        0x000008e8:    41b4        .A      SBCS     r4,r4,r6
        0x000008ea:    9500        ..      STR      r5,[sp,#0]
        0x000008ec:    460d        .F      MOV      r5,r1
        0x000008ee:    9401        ..      STR      r4,[sp,#4]
        0x000008f0:    435d        ]C      MULS     r5,r3,r5
        0x000008f2:    2400        .$      MOVS     r4,#0
        0x000008f4:    0c2e        ..      LSRS     r6,r5,#16
        0x000008f6:    0424        $.      LSLS     r4,r4,#16
        0x000008f8:    4334        4C      ORRS     r4,r4,r6
        0x000008fa:    460e        .F      MOV      r6,r1
        0x000008fc:    042f        /.      LSLS     r7,r5,#16
        0x000008fe:    4356        VC      MULS     r6,r2,r6
        0x00000900:    0c35        5.      LSRS     r5,r6,#16
        0x00000902:    432f        /C      ORRS     r7,r7,r5
        0x00000904:    9d03        ..      LDR      r5,[sp,#0xc]
        0x00000906:    0436        6.      LSLS     r6,r6,#16
        0x00000908:    1bad        ..      SUBS     r5,r5,r6
        0x0000090a:    9503        ..      STR      r5,[sp,#0xc]
        0x0000090c:    d202        ..      BCS      0x914 ; __aeabi_ddiv + 244
        0x0000090e:    2600        .&      MOVS     r6,#0
        0x00000910:    1c7f        ..      ADDS     r7,r7,#1
        0x00000912:    4174        tA      ADCS     r4,r4,r6
        0x00000914:    9e00        ..      LDR      r6,[sp,#0]
        0x00000916:    9d01        ..      LDR      r5,[sp,#4]
        0x00000918:    1bf6        ..      SUBS     r6,r6,r7
        0x0000091a:    41a5        .A      SBCS     r5,r5,r4
        0x0000091c:    0409        ..      LSLS     r1,r1,#16
        0x0000091e:    9600        ..      STR      r6,[sp,#0]
        0x00000920:    9501        ..      STR      r5,[sp,#4]
        0x00000922:    9105        ..      STR      r1,[sp,#0x14]
        0x00000924:    08ac        ..      LSRS     r4,r5,#2
        0x00000926:    9906        ..      LDR      r1,[sp,#0x18]
        0x00000928:    2500        .%      MOVS     r5,#0
        0x0000092a:    4361        aC      MULS     r1,r4,r1
        0x0000092c:    0c09        ..      LSRS     r1,r1,#16
        0x0000092e:    460f        .F      MOV      r7,r1
        0x00000930:    4347        GC      MULS     r7,r0,r7
        0x00000932:    0b7c        |.      LSRS     r4,r7,#13
        0x00000934:    04ed        ..      LSLS     r5,r5,#19
        0x00000936:    4325        %C      ORRS     r5,r5,r4
        0x00000938:    e001        ..      B        0x93e ; __aeabi_ddiv + 286
        0x0000093a:    e12a        *.      B        0xb92 ; __aeabi_ddiv + 882
        0x0000093c:    e14f        O.      B        0xbde ; __aeabi_ddiv + 958
        0x0000093e:    04fe        ..      LSLS     r6,r7,#19
        0x00000940:    4664        dF      MOV      r4,r12
        0x00000942:    460f        .F      MOV      r7,r1
        0x00000944:    4367        gC      MULS     r7,r4,r7
        0x00000946:    0b7c        |.      LSRS     r4,r7,#13
        0x00000948:    4334        4C      ORRS     r4,r4,r6
        0x0000094a:    9402        ..      STR      r4,[sp,#8]
        0x0000094c:    9c03        ..      LDR      r4,[sp,#0xc]
        0x0000094e:    04fe        ..      LSLS     r6,r7,#19
        0x00000950:    1ba4        ..      SUBS     r4,r4,r6
        0x00000952:    9403        ..      STR      r4,[sp,#0xc]
        0x00000954:    d204        ..      BCS      0x960 ; __aeabi_ddiv + 320
        0x00000956:    9c02        ..      LDR      r4,[sp,#8]
        0x00000958:    2600        .&      MOVS     r6,#0
        0x0000095a:    1c64        d.      ADDS     r4,r4,#1
        0x0000095c:    4175        uA      ADCS     r5,r5,r6
        0x0000095e:    9402        ..      STR      r4,[sp,#8]
        0x00000960:    9f02        ..      LDR      r7,[sp,#8]
        0x00000962:    9e00        ..      LDR      r6,[sp,#0]
        0x00000964:    9c01        ..      LDR      r4,[sp,#4]
        0x00000966:    1bf6        ..      SUBS     r6,r6,r7
        0x00000968:    41ac        .A      SBCS     r4,r4,r5
        0x0000096a:    9401        ..      STR      r4,[sp,#4]
        0x0000096c:    460c        .F      MOV      r4,r1
        0x0000096e:    435c        \C      MULS     r4,r3,r4
        0x00000970:    9600        ..      STR      r6,[sp,#0]
        0x00000972:    0f66        f.      LSRS     r6,r4,#29
        0x00000974:    2500        .%      MOVS     r5,#0
        0x00000976:    00e7        ..      LSLS     r7,r4,#3
        0x00000978:    00ed        ..      LSLS     r5,r5,#3
        0x0000097a:    460c        .F      MOV      r4,r1
        0x0000097c:    4335        5C      ORRS     r5,r5,r6
        0x0000097e:    4354        TC      MULS     r4,r2,r4
        0x00000980:    0f66        f.      LSRS     r6,r4,#29
        0x00000982:    433e        >C      ORRS     r6,r6,r7
        0x00000984:    9f03        ..      LDR      r7,[sp,#0xc]
        0x00000986:    00e4        ..      LSLS     r4,r4,#3
        0x00000988:    1b3c        <.      SUBS     r4,r7,r4
        0x0000098a:    9403        ..      STR      r4,[sp,#0xc]
        0x0000098c:    d202        ..      BCS      0x994 ; __aeabi_ddiv + 372
        0x0000098e:    2400        .$      MOVS     r4,#0
        0x00000990:    1c76        v.      ADDS     r6,r6,#1
        0x00000992:    4165        eA      ADCS     r5,r5,r4
        0x00000994:    9f00        ..      LDR      r7,[sp,#0]
        0x00000996:    9c01        ..      LDR      r4,[sp,#4]
        0x00000998:    1bbe        ..      SUBS     r6,r7,r6
        0x0000099a:    41ac        .A      SBCS     r4,r4,r5
        0x0000099c:    09b5        ..      LSRS     r5,r6,#6
        0x0000099e:    06a4        ..      LSLS     r4,r4,#26
        0x000009a0:    432c        ,C      ORRS     r4,r4,r5
        0x000009a2:    9d03        ..      LDR      r5,[sp,#0xc]
        0x000009a4:    06b6        ..      LSLS     r6,r6,#26
        0x000009a6:    09ad        ..      LSRS     r5,r5,#6
        0x000009a8:    432e        .C      ORRS     r6,r6,r5
        0x000009aa:    9d03        ..      LDR      r5,[sp,#0xc]
        0x000009ac:    00c9        ..      LSLS     r1,r1,#3
        0x000009ae:    06ad        ..      LSLS     r5,r5,#26
        0x000009b0:    9503        ..      STR      r5,[sp,#0xc]
        0x000009b2:    9d05        ..      LDR      r5,[sp,#0x14]
        0x000009b4:    1869        i.      ADDS     r1,r5,r1
        0x000009b6:    9105        ..      STR      r1,[sp,#0x14]
        0x000009b8:    9906        ..      LDR      r1,[sp,#0x18]
        0x000009ba:    0be5        ..      LSRS     r5,r4,#15
        0x000009bc:    4369        iC      MULS     r1,r5,r1
        0x000009be:    0c09        ..      LSRS     r1,r1,#16
        0x000009c0:    4665        eF      MOV      r5,r12
        0x000009c2:    460f        .F      MOV      r7,r1
        0x000009c4:    436f        oC      MULS     r7,r5,r7
        0x000009c6:    460d        .F      MOV      r5,r1
        0x000009c8:    4345        EC      MULS     r5,r0,r5
        0x000009ca:    46ae        .F      MOV      lr,r5
        0x000009cc:    463d        =F      MOV      r5,r7
        0x000009ce:    1b75        u.      SUBS     r5,r6,r5
        0x000009d0:    4677        wF      MOV      r7,lr
        0x000009d2:    41bc        .A      SBCS     r4,r4,r7
        0x000009d4:    9500        ..      STR      r5,[sp,#0]
        0x000009d6:    460d        .F      MOV      r5,r1
        0x000009d8:    9401        ..      STR      r4,[sp,#4]
        0x000009da:    435d        ]C      MULS     r5,r3,r5
        0x000009dc:    2400        .$      MOVS     r4,#0
        0x000009de:    0c2e        ..      LSRS     r6,r5,#16
        0x000009e0:    0424        $.      LSLS     r4,r4,#16
        0x000009e2:    460f        .F      MOV      r7,r1
        0x000009e4:    4334        4C      ORRS     r4,r4,r6
        0x000009e6:    4357        WC      MULS     r7,r2,r7
        0x000009e8:    042d        -.      LSLS     r5,r5,#16
        0x000009ea:    0c3e        >.      LSRS     r6,r7,#16
        0x000009ec:    432e        .C      ORRS     r6,r6,r5
        0x000009ee:    9602        ..      STR      r6,[sp,#8]
        0x000009f0:    4626        &F      MOV      r6,r4
        0x000009f2:    9d03        ..      LDR      r5,[sp,#0xc]
        0x000009f4:    043c        <.      LSLS     r4,r7,#16
        0x000009f6:    1b2c        ,.      SUBS     r4,r5,r4
        0x000009f8:    9403        ..      STR      r4,[sp,#0xc]
        0x000009fa:    d205        ..      BCS      0xa08 ; __aeabi_ddiv + 488
        0x000009fc:    9c02        ..      LDR      r4,[sp,#8]
        0x000009fe:    4635        5F      MOV      r5,r6
        0x00000a00:    1c64        d.      ADDS     r4,r4,#1
        0x00000a02:    2600        .&      MOVS     r6,#0
        0x00000a04:    416e        nA      ADCS     r6,r6,r5
        0x00000a06:    9402        ..      STR      r4,[sp,#8]
        0x00000a08:    9f00        ..      LDR      r7,[sp,#0]
        0x00000a0a:    9d02        ..      LDR      r5,[sp,#8]
        0x00000a0c:    9c01        ..      LDR      r4,[sp,#4]
        0x00000a0e:    1b7d        }.      SUBS     r5,r7,r5
        0x00000a10:    41b4        .A      SBCS     r4,r4,r6
        0x00000a12:    9500        ..      STR      r5,[sp,#0]
        0x00000a14:    058d        ..      LSLS     r5,r1,#22
        0x00000a16:    9504        ..      STR      r5,[sp,#0x10]
        0x00000a18:    9d05        ..      LDR      r5,[sp,#0x14]
        0x00000a1a:    0a89        ..      LSRS     r1,r1,#10
        0x00000a1c:    1869        i.      ADDS     r1,r5,r1
        0x00000a1e:    9105        ..      STR      r1,[sp,#0x14]
        0x00000a20:    9906        ..      LDR      r1,[sp,#0x18]
        0x00000a22:    08a5        ..      LSRS     r5,r4,#2
        0x00000a24:    4369        iC      MULS     r1,r5,r1
        0x00000a26:    0c09        ..      LSRS     r1,r1,#16
        0x00000a28:    460d        .F      MOV      r5,r1
        0x00000a2a:    4345        EC      MULS     r5,r0,r5
        0x00000a2c:    2000        .       MOVS     r0,#0
        0x00000a2e:    0b6e        n.      LSRS     r6,r5,#13
        0x00000a30:    04c0        ..      LSLS     r0,r0,#19
        0x00000a32:    4330        0C      ORRS     r0,r0,r6
        0x00000a34:    04ef        ..      LSLS     r7,r5,#19
        0x00000a36:    460d        .F      MOV      r5,r1
        0x00000a38:    4666        fF      MOV      r6,r12
        0x00000a3a:    4375        uC      MULS     r5,r6,r5
        0x00000a3c:    0b6e        n.      LSRS     r6,r5,#13
        0x00000a3e:    433e        >C      ORRS     r6,r6,r7
        0x00000a40:    9f03        ..      LDR      r7,[sp,#0xc]
        0x00000a42:    04ed        ..      LSLS     r5,r5,#19
        0x00000a44:    1b7d        }.      SUBS     r5,r7,r5
        0x00000a46:    d202        ..      BCS      0xa4e ; __aeabi_ddiv + 558
        0x00000a48:    2700        .'      MOVS     r7,#0
        0x00000a4a:    1c76        v.      ADDS     r6,r6,#1
        0x00000a4c:    4178        xA      ADCS     r0,r0,r7
        0x00000a4e:    9f00        ..      LDR      r7,[sp,#0]
        0x00000a50:    1bbe        ..      SUBS     r6,r7,r6
        0x00000a52:    4184        .A      SBCS     r4,r4,r0
        0x00000a54:    4608        .F      MOV      r0,r1
        0x00000a56:    9401        ..      STR      r4,[sp,#4]
        0x00000a58:    46b4        .F      MOV      r12,r6
        0x00000a5a:    4358        XC      MULS     r0,r3,r0
        0x00000a5c:    2400        .$      MOVS     r4,#0
        0x00000a5e:    0f46        F.      LSRS     r6,r0,#29
        0x00000a60:    00e4        ..      LSLS     r4,r4,#3
        0x00000a62:    4334        4C      ORRS     r4,r4,r6
        0x00000a64:    00c6        ..      LSLS     r6,r0,#3
        0x00000a66:    4608        .F      MOV      r0,r1
        0x00000a68:    4350        PC      MULS     r0,r2,r0
        0x00000a6a:    0f47        G.      LSRS     r7,r0,#29
        0x00000a6c:    4337        7C      ORRS     r7,r7,r6
        0x00000a6e:    00c0        ..      LSLS     r0,r0,#3
        0x00000a70:    1a2d        -.      SUBS     r5,r5,r0
        0x00000a72:    d202        ..      BCS      0xa7a ; __aeabi_ddiv + 602
        0x00000a74:    2000        .       MOVS     r0,#0
        0x00000a76:    1c7f        ..      ADDS     r7,r7,#1
        0x00000a78:    4144        DA      ADCS     r4,r4,r0
        0x00000a7a:    4666        fF      MOV      r6,r12
        0x00000a7c:    9801        ..      LDR      r0,[sp,#4]
        0x00000a7e:    1bf6        ..      SUBS     r6,r6,r7
        0x00000a80:    41a0        .A      SBCS     r0,r0,r4
        0x00000a82:    09b4        ..      LSRS     r4,r6,#6
        0x00000a84:    0680        ..      LSLS     r0,r0,#26
        0x00000a86:    4320         C      ORRS     r0,r0,r4
        0x00000a88:    09ac        ..      LSRS     r4,r5,#6
        0x00000a8a:    06b6        ..      LSLS     r6,r6,#26
        0x00000a8c:    4326        &C      ORRS     r6,r6,r4
        0x00000a8e:    46b6        .F      MOV      lr,r6
        0x00000a90:    024c        L.      LSLS     r4,r1,#9
        0x00000a92:    9e04        ..      LDR      r6,[sp,#0x10]
        0x00000a94:    06ad        ..      LSLS     r5,r5,#26
        0x00000a96:    9f05        ..      LDR      r7,[sp,#0x14]
        0x00000a98:    19a4        ..      ADDS     r4,r4,r6
        0x00000a9a:    2100        .!      MOVS     r1,#0
        0x00000a9c:    4179        yA      ADCS     r1,r1,r7
        0x00000a9e:    9105        ..      STR      r1,[sp,#0x14]
        0x00000aa0:    9908        ..      LDR      r1,[sp,#0x20]
        0x00000aa2:    4676        vF      MOV      r6,lr
        0x00000aa4:    4319        .C      ORRS     r1,r1,r3
        0x00000aa6:    9b09        ..      LDR      r3,[sp,#0x24]
        0x00000aa8:    19b6        ..      ADDS     r6,r6,r6
        0x00000aaa:    4313        .C      ORRS     r3,r3,r2
        0x00000aac:    2200        ."      MOVS     r2,#0
        0x00000aae:    4140        @A      ADCS     r0,r0,r0
        0x00000ab0:    4694        .F      MOV      r12,r2
        0x00000ab2:    0fea        ..      LSRS     r2,r5,#31
        0x00000ab4:    006f        o.      LSLS     r7,r5,#1
        0x00000ab6:    4332        2C      ORRS     r2,r2,r6
        0x00000ab8:    4605        .F      MOV      r5,r0
        0x00000aba:    1ad6        ..      SUBS     r6,r2,r3
        0x00000abc:    418d        .A      SBCS     r5,r5,r1
        0x00000abe:    42a8        .B      CMP      r0,r5
        0x00000ac0:    d903        ..      BLS      0xaca ; __aeabi_ddiv + 682
        0x00000ac2:    2001        .       MOVS     r0,#1
        0x00000ac4:    4684        .F      MOV      r12,r0
        0x00000ac6:    4632        2F      MOV      r2,r6
        0x00000ac8:    4628        (F      MOV      r0,r5
        0x00000aca:    0fc6        ..      LSRS     r6,r0,#31
        0x00000acc:    1895        ..      ADDS     r5,r2,r2
        0x00000ace:    4140        @A      ADCS     r0,r0,r0
        0x00000ad0:    0ffa        ..      LSRS     r2,r7,#31
        0x00000ad2:    432a        *C      ORRS     r2,r2,r5
        0x00000ad4:    007d        }.      LSLS     r5,r7,#1
        0x00000ad6:    9503        ..      STR      r5,[sp,#0xc]
        0x00000ad8:    4665        eF      MOV      r5,r12
        0x00000ada:    006f        o.      LSLS     r7,r5,#1
        0x00000adc:    46b6        .F      MOV      lr,r6
        0x00000ade:    1ad6        ..      SUBS     r6,r2,r3
        0x00000ae0:    4605        .F      MOV      r5,r0
        0x00000ae2:    46b4        .F      MOV      r12,r6
        0x00000ae4:    418d        .A      SBCS     r5,r5,r1
        0x00000ae6:    4676        vF      MOV      r6,lr
        0x00000ae8:    2e00        ..      CMP      r6,#0
        0x00000aea:    d101        ..      BNE      0xaf0 ; __aeabi_ddiv + 720
        0x00000aec:    42a8        .B      CMP      r0,r5
        0x00000aee:    d902        ..      BLS      0xaf6 ; __aeabi_ddiv + 726
        0x00000af0:    1c7f        ..      ADDS     r7,r7,#1
        0x00000af2:    4662        bF      MOV      r2,r12
        0x00000af4:    4628        (F      MOV      r0,r5
        0x00000af6:    0fc5        ..      LSRS     r5,r0,#31
        0x00000af8:    46ac        .F      MOV      r12,r5
        0x00000afa:    1895        ..      ADDS     r5,r2,r2
        0x00000afc:    4140        @A      ADCS     r0,r0,r0
        0x00000afe:    9a03        ..      LDR      r2,[sp,#0xc]
        0x00000b00:    4606        .F      MOV      r6,r0
        0x00000b02:    0fd2        ..      LSRS     r2,r2,#31
        0x00000b04:    432a        *C      ORRS     r2,r2,r5
        0x00000b06:    007d        }.      LSLS     r5,r7,#1
        0x00000b08:    1ad3        ..      SUBS     r3,r2,r3
        0x00000b0a:    418e        .A      SBCS     r6,r6,r1
        0x00000b0c:    4661        aF      MOV      r1,r12
        0x00000b0e:    2900        .)      CMP      r1,#0
        0x00000b10:    d101        ..      BNE      0xb16 ; __aeabi_ddiv + 758
        0x00000b12:    42b0        .B      CMP      r0,r6
        0x00000b14:    d902        ..      BLS      0xb1c ; __aeabi_ddiv + 764
        0x00000b16:    1c6d        m.      ADDS     r5,r5,#1
        0x00000b18:    4630        0F      MOV      r0,r6
        0x00000b1a:    461a        .F      MOV      r2,r3
        0x00000b1c:    4310        .C      ORRS     r0,r0,r2
        0x00000b1e:    d001        ..      BEQ      0xb24 ; __aeabi_ddiv + 772
        0x00000b20:    2001        .       MOVS     r0,#1
        0x00000b22:    4304        .C      ORRS     r4,r4,r0
        0x00000b24:    0268        h.      LSLS     r0,r5,#9
        0x00000b26:    9a05        ..      LDR      r2,[sp,#0x14]
        0x00000b28:    2100        .!      MOVS     r1,#0
        0x00000b2a:    1900        ..      ADDS     r0,r0,r4
        0x00000b2c:    4151        QA      ADCS     r1,r1,r2
        0x00000b2e:    2202        ."      MOVS     r2,#2
        0x00000b30:    2900        .)      CMP      r1,#0
        0x00000b32:    db02        ..      BLT      0xb3a ; __aeabi_ddiv + 794
        0x00000b34:    2201        ."      MOVS     r2,#1
        0x00000b36:    1800        ..      ADDS     r0,r0,r0
        0x00000b38:    4149        IA      ADCS     r1,r1,r1
        0x00000b3a:    9b07        ..      LDR      r3,[sp,#0x1c]
        0x00000b3c:    054c        L.      LSLS     r4,r1,#21
        0x00000b3e:    141b        ..      ASRS     r3,r3,#16
        0x00000b40:    18d3        ..      ADDS     r3,r2,r3
        0x00000b42:    0ac9        ..      LSRS     r1,r1,#11
        0x00000b44:    051b        ..      LSLS     r3,r3,#20
        0x00000b46:    18cb        ..      ADDS     r3,r1,r3
        0x00000b48:    9907        ..      LDR      r1,[sp,#0x1c]
        0x00000b4a:    0542        B.      LSLS     r2,r0,#21
        0x00000b4c:    0ac0        ..      LSRS     r0,r0,#11
        0x00000b4e:    07c9        ..      LSLS     r1,r1,#31
        0x00000b50:    4320         C      ORRS     r0,r0,r4
        0x00000b52:    4059        Y@      EORS     r1,r1,r3
        0x00000b54:    2a00        .*      CMP      r2,#0
        0x00000b56:    d009        ..      BEQ      0xb6c ; __aeabi_ddiv + 844
        0x00000b58:    2401        .$      MOVS     r4,#1
        0x00000b5a:    40a2        .@      LSLS     r2,r2,r4
        0x00000b5c:    d306        ..      BCC      0xb6c ; __aeabi_ddiv + 844
        0x00000b5e:    2400        .$      MOVS     r4,#0
        0x00000b60:    1c40        @.      ADDS     r0,r0,#1
        0x00000b62:    4161        aA      ADCS     r1,r1,r4
        0x00000b64:    2a00        .*      CMP      r2,#0
        0x00000b66:    d101        ..      BNE      0xb6c ; __aeabi_ddiv + 844
        0x00000b68:    0840        @.      LSRS     r0,r0,#1
        0x00000b6a:    0040        @.      LSLS     r0,r0,#1
        0x00000b6c:    4a2b        +J      LDR      r2,[pc,#172] ; [0xc1c] = 0x7ff00000
        0x00000b6e:    2b00        .+      CMP      r3,#0
        0x00000b70:    db04        ..      BLT      0xb7c ; __aeabi_ddiv + 860
        0x00000b72:    461c        .F      MOV      r4,r3
        0x00000b74:    4214        .B      TST      r4,r2
        0x00000b76:    d001        ..      BEQ      0xb7c ; __aeabi_ddiv + 860
        0x00000b78:    439a        .C      BICS     r2,r2,r3
        0x00000b7a:    d125        %.      BNE      0xbc8 ; __aeabi_ddiv + 936
        0x00000b7c:    2201        ."      MOVS     r2,#1
        0x00000b7e:    9807        ..      LDR      r0,[sp,#0x1c]
        0x00000b80:    0692        ..      LSLS     r2,r2,#26
        0x00000b82:    4290        .B      CMP      r0,r2
        0x00000b84:    dc33        3.      BGT      0xbee ; __aeabi_ddiv + 974
        0x00000b86:    2003        .       MOVS     r0,#3
        0x00000b88:    0740        @.      LSLS     r0,r0,#29
        0x00000b8a:    1808        ..      ADDS     r0,r1,r0
        0x00000b8c:    0fc1        ..      LSRS     r1,r0,#31
        0x00000b8e:    07c9        ..      LSLS     r1,r1,#31
        0x00000b90:    e034        4.      B        0xbfc ; __aeabi_ddiv + 988
        0x00000b92:    460e        .F      MOV      r6,r1
        0x00000b94:    1807        ..      ADDS     r7,r0,r0
        0x00000b96:    414e        NA      ADCS     r6,r6,r1
        0x00000b98:    4d21        !M      LDR      r5,[pc,#132] ; [0xc20] = 0xffe00000
        0x00000b9a:    427a        zB      RSBS     r2,r7,#0
        0x00000b9c:    41b5        .A      SBCS     r5,r5,r6
        0x00000b9e:    d31b        ..      BCC      0xbd8 ; __aeabi_ddiv + 952
        0x00000ba0:    4662        bF      MOV      r2,r12
        0x00000ba2:    1896        ..      ADDS     r6,r2,r2
        0x00000ba4:    461d        .F      MOV      r5,r3
        0x00000ba6:    415d        ]A      ADCS     r5,r5,r3
        0x00000ba8:    4a1d        .J      LDR      r2,[pc,#116] ; [0xc20] = 0xffe00000
        0x00000baa:    4276        vB      RSBS     r6,r6,#0
        0x00000bac:    41aa        .A      SBCS     r2,r2,r5
        0x00000bae:    d313        ..      BCC      0xbd8 ; __aeabi_ddiv + 952
        0x00000bb0:    2201        ."      MOVS     r2,#1
        0x00000bb2:    0552        R.      LSLS     r2,r2,#21
        0x00000bb4:    004d        M.      LSLS     r5,r1,#1
        0x00000bb6:    42d5        .B      CMN      r5,r2
        0x00000bb8:    d10b        ..      BNE      0xbd2 ; __aeabi_ddiv + 946
        0x00000bba:    005c        \.      LSLS     r4,r3,#1
        0x00000bbc:    42d4        .B      CMN      r4,r2
        0x00000bbe:    d00b        ..      BEQ      0xbd8 ; __aeabi_ddiv + 952
        0x00000bc0:    404b        K@      EORS     r3,r3,r1
        0x00000bc2:    d503        ..      BPL      0xbcc ; __aeabi_ddiv + 940
        0x00000bc4:    0292        ..      LSLS     r2,r2,#10
        0x00000bc6:    4311        .C      ORRS     r1,r1,r2
        0x00000bc8:    b00b        ..      ADD      sp,sp,#0x2c
        0x00000bca:    bdf0        ..      POP      {r4-r7,pc}
        0x00000bcc:    0049        I.      LSLS     r1,r1,#1
        0x00000bce:    0849        I.      LSRS     r1,r1,#1
        0x00000bd0:    e7fa        ..      B        0xbc8 ; __aeabi_ddiv + 936
        0x00000bd2:    0fe1        ..      LSRS     r1,r4,#31
        0x00000bd4:    07c9        ..      LSLS     r1,r1,#31
        0x00000bd6:    e011        ..      B        0xbfc ; __aeabi_ddiv + 988
        0x00000bd8:    2000        .       MOVS     r0,#0
        0x00000bda:    4912        .I      LDR      r1,[pc,#72] ; [0xc24] = 0x7ff80000
        0x00000bdc:    e7f4        ..      B        0xbc8 ; __aeabi_ddiv + 936
        0x00000bde:    480f        .H      LDR      r0,[pc,#60] ; [0xc1c] = 0x7ff00000
        0x00000be0:    4201        .B      TST      r1,r0
        0x00000be2:    d001        ..      BEQ      0xbe8 ; __aeabi_ddiv + 968
        0x00000be4:    4621        !F      MOV      r1,r4
        0x00000be6:    e005        ..      B        0xbf4 ; __aeabi_ddiv + 980
        0x00000be8:    4203        .B      TST      r3,r0
        0x00000bea:    d0f5        ..      BEQ      0xbd8 ; __aeabi_ddiv + 952
        0x00000bec:    e7f1        ..      B        0xbd2 ; __aeabi_ddiv + 946
        0x00000bee:    2005        .       MOVS     r0,#5
        0x00000bf0:    0740        @.      LSLS     r0,r0,#29
        0x00000bf2:    1809        ..      ADDS     r1,r1,r0
        0x00000bf4:    480c        .H      LDR      r0,[pc,#48] ; [0xc28] = 0x7fffffff
        0x00000bf6:    4301        .C      ORRS     r1,r1,r0
        0x00000bf8:    12c0        ..      ASRS     r0,r0,#11
        0x00000bfa:    4041        A@      EORS     r1,r1,r0
        0x00000bfc:    2000        .       MOVS     r0,#0
        0x00000bfe:    e7e3        ..      B        0xbc8 ; __aeabi_ddiv + 936
    _drdiv
        0x00000c00:    4059        Y@      EORS     r1,r1,r3
        0x00000c02:    4050        P@      EORS     r0,r0,r2
        0x00000c04:    b510        ..      PUSH     {r4,lr}
        0x00000c06:    404b        K@      EORS     r3,r3,r1
        0x00000c08:    4042        B@      EORS     r2,r2,r0
        0x00000c0a:    4059        Y@      EORS     r1,r1,r3
        0x00000c0c:    4050        P@      EORS     r0,r0,r2
        0x00000c0e:    f7fffe07    ....    BL       __aeabi_ddiv ; 0x820
        0x00000c12:    bd10        ..      POP      {r4,pc}
    $d
        0x00000c14:    07ff0000    ....    DCD    134152192
        0x00000c18:    000034d8    .4..    DCD    13528
        0x00000c1c:    7ff00000    ....    DCD    2146435072
        0x00000c20:    ffe00000    ....    DCD    4292870144
        0x00000c24:    7ff80000    ....    DCD    2146959360
        0x00000c28:    7fffffff    ....    DCD    2147483647
    $t
    .text
    __aeabi_d2uiz
    _dfixu
        0x00000c2c:    02cb        ..      LSLS     r3,r1,#11
        0x00000c2e:    0d42        B.      LSRS     r2,r0,#21
        0x00000c30:    b510        ..      PUSH     {r4,lr}
        0x00000c32:    431a        .C      ORRS     r2,r2,r3
        0x00000c34:    150b        ..      ASRS     r3,r1,#20
        0x00000c36:    d004        ..      BEQ      0xc42 ; __aeabi_d2uiz + 22
        0x00000c38:    2401        .$      MOVS     r4,#1
        0x00000c3a:    07e4        ..      LSLS     r4,r4,#31
        0x00000c3c:    4322        "C      ORRS     r2,r2,r4
        0x00000c3e:    2b00        .+      CMP      r3,#0
        0x00000c40:    db06        ..      BLT      0xc50 ; __aeabi_d2uiz + 36
        0x00000c42:    4c0a        .L      LDR      r4,[pc,#40] ; [0xc6c] = 0x41e
        0x00000c44:    1ae3        ..      SUBS     r3,r4,r3
        0x00000c46:    d405        ..      BMI      0xc54 ; __aeabi_d2uiz + 40
        0x00000c48:    4610        .F      MOV      r0,r2
        0x00000c4a:    40d8        .@      LSRS     r0,r0,r3
        0x00000c4c:    2bff        .+      CMP      r3,#0xff
        0x00000c4e:    dd00        ..      BLE      0xc52 ; __aeabi_d2uiz + 38
        0x00000c50:    2000        .       MOVS     r0,#0
        0x00000c52:    bd10        ..      POP      {r4,pc}
        0x00000c54:    004a        J.      LSLS     r2,r1,#1
        0x00000c56:    2800        .(      CMP      r0,#0
        0x00000c58:    d000        ..      BEQ      0xc5c ; __aeabi_d2uiz + 48
        0x00000c5a:    2001        .       MOVS     r0,#1
        0x00000c5c:    1810        ..      ADDS     r0,r2,r0
        0x00000c5e:    4a04        .J      LDR      r2,[pc,#16] ; [0xc70] = 0xffe00000
        0x00000c60:    4290        .B      CMP      r0,r2
        0x00000c62:    d8f5        ..      BHI      0xc50 ; __aeabi_d2uiz + 36
        0x00000c64:    17c8        ..      ASRS     r0,r1,#31
        0x00000c66:    43c0        .C      MVNS     r0,r0
        0x00000c68:    bd10        ..      POP      {r4,pc}
    $d
        0x00000c6a:    0000        ..      DCW    0
        0x00000c6c:    0000041e    ....    DCD    1054
        0x00000c70:    ffe00000    ....    DCD    4292870144
    $t
    .text
    __aeabi_i2d_normalise
        0x00000c74:    221f        ."      MOVS     r2,#0x1f
        0x00000c76:    0c03        ..      LSRS     r3,r0,#16
        0x00000c78:    d102        ..      BNE      0xc80 ; __aeabi_i2d_normalise + 12
        0x00000c7a:    220f        ."      MOVS     r2,#0xf
        0x00000c7c:    0400        ..      LSLS     r0,r0,#16
        0x00000c7e:    d002        ..      BEQ      0xc86 ; __aeabi_i2d_normalise + 18
        0x00000c80:    0e03        ..      LSRS     r3,r0,#24
        0x00000c82:    d003        ..      BEQ      0xc8c ; __aeabi_i2d_normalise + 24
        0x00000c84:    e004        ..      B        0xc90 ; __aeabi_i2d_normalise + 28
        0x00000c86:    2000        .       MOVS     r0,#0
        0x00000c88:    4601        .F      MOV      r1,r0
        0x00000c8a:    4770        pG      BX       lr
        0x00000c8c:    3a08        .:      SUBS     r2,r2,#8
        0x00000c8e:    0200        ..      LSLS     r0,r0,#8
        0x00000c90:    0f03        ..      LSRS     r3,r0,#28
        0x00000c92:    d101        ..      BNE      0xc98 ; __aeabi_i2d_normalise + 36
        0x00000c94:    1f12        ..      SUBS     r2,r2,#4
        0x00000c96:    0100        ..      LSLS     r0,r0,#4
        0x00000c98:    0f83        ..      LSRS     r3,r0,#30
        0x00000c9a:    d101        ..      BNE      0xca0 ; __aeabi_i2d_normalise + 44
        0x00000c9c:    1e92        ..      SUBS     r2,r2,#2
        0x00000c9e:    0080        ..      LSLS     r0,r0,#2
        0x00000ca0:    2800        .(      CMP      r0,#0
        0x00000ca2:    db01        ..      BLT      0xca8 ; __aeabi_i2d_normalise + 52
        0x00000ca4:    1e52        R.      SUBS     r2,r2,#1
        0x00000ca6:    0040        @.      LSLS     r0,r0,#1
        0x00000ca8:    0512        ..      LSLS     r2,r2,#20
        0x00000caa:    1851        Q.      ADDS     r1,r2,r1
        0x00000cac:    0542        B.      LSLS     r2,r0,#21
        0x00000cae:    12c0        ..      ASRS     r0,r0,#11
        0x00000cb0:    1841        A.      ADDS     r1,r0,r1
        0x00000cb2:    4610        .F      MOV      r0,r2
        0x00000cb4:    4770        pG      BX       lr
    __aeabi_i2d
    _dflt
        0x00000cb6:    0fc1        ..      LSRS     r1,r0,#31
        0x00000cb8:    07c9        ..      LSLS     r1,r1,#31
        0x00000cba:    d000        ..      BEQ      0xcbe ; __aeabi_i2d + 8
        0x00000cbc:    4240        @B      RSBS     r0,r0,#0
        0x00000cbe:    2201        ."      MOVS     r2,#1
        0x00000cc0:    0792        ..      LSLS     r2,r2,#30
        0x00000cc2:    4311        .C      ORRS     r1,r1,r2
        0x00000cc4:    e7d6        ..      B        __aeabi_i2d_normalise ; 0xc74
    __aeabi_ui2d
    _dfltu
        0x00000cc6:    2101        .!      MOVS     r1,#1
        0x00000cc8:    0789        ..      LSLS     r1,r1,#30
        0x00000cca:    e7d3        ..      B        __aeabi_i2d_normalise ; 0xc74
    .text
    __aeabi_dmul
    _dmul
        0x00000ccc:    b5f0        ..      PUSH     {r4-r7,lr}
        0x00000cce:    4c9d        .L      LDR      r4,[pc,#628] ; [0xf44] = 0x7ff0000
        0x00000cd0:    090d        ..      LSRS     r5,r1,#4
        0x00000cd2:    4626        &F      MOV      r6,r4
        0x00000cd4:    46ac        .F      MOV      r12,r5
        0x00000cd6:    43ae        .C      BICS     r6,r6,r5
        0x00000cd8:    460d        .F      MOV      r5,r1
        0x00000cda:    405d        ]@      EORS     r5,r5,r3
        0x00000cdc:    b089        ..      SUB      sp,sp,#0x24
        0x00000cde:    2e00        ..      CMP      r6,#0
        0x00000ce0:    d07e        ~.      BEQ      0xde0 ; __aeabi_dmul + 276
        0x00000ce2:    091e        ..      LSRS     r6,r3,#4
        0x00000ce4:    4627        'F      MOV      r7,r4
        0x00000ce6:    43b7        .C      BICS     r7,r7,r6
        0x00000ce8:    d07a        z.      BEQ      0xde0 ; __aeabi_dmul + 276
        0x00000cea:    4667        gF      MOV      r7,r12
        0x00000cec:    4027        '@      ANDS     r7,r7,r4
        0x00000cee:    0fed        ..      LSRS     r5,r5,#31
        0x00000cf0:    433d        =C      ORRS     r5,r5,r7
        0x00000cf2:    4026        &@      ANDS     r6,r6,r4
        0x00000cf4:    d075        u.      BEQ      0xde2 ; __aeabi_dmul + 278
        0x00000cf6:    0124        $.      LSLS     r4,r4,#4
        0x00000cf8:    4221        !B      TST      r1,r4
        0x00000cfa:    d072        r.      BEQ      0xde2 ; __aeabi_dmul + 278
        0x00000cfc:    1974        t.      ADDS     r4,r6,r5
        0x00000cfe:    25ff        .%      MOVS     r5,#0xff
        0x00000d00:    04ad        ..      LSLS     r5,r5,#18
        0x00000d02:    1b64        d.      SUBS     r4,r4,r5
        0x00000d04:    9404        ..      STR      r4,[sp,#0x10]
        0x00000d06:    02cc        ..      LSLS     r4,r1,#11
        0x00000d08:    02d9        ..      LSLS     r1,r3,#11
        0x00000d0a:    2301        .#      MOVS     r3,#1
        0x00000d0c:    051b        ..      LSLS     r3,r3,#20
        0x00000d0e:    0ae4        ..      LSRS     r4,r4,#11
        0x00000d10:    0ac9        ..      LSRS     r1,r1,#11
        0x00000d12:    431c        .C      ORRS     r4,r4,r3
        0x00000d14:    4319        .C      ORRS     r1,r1,r3
        0x00000d16:    0124        $.      LSLS     r4,r4,#4
        0x00000d18:    0f03        ..      LSRS     r3,r0,#28
        0x00000d1a:    431c        .C      ORRS     r4,r4,r3
        0x00000d1c:    010b        ..      LSLS     r3,r1,#4
        0x00000d1e:    0105        ..      LSLS     r5,r0,#4
        0x00000d20:    0f11        ..      LSRS     r1,r2,#28
        0x00000d22:    430b        .C      ORRS     r3,r3,r1
        0x00000d24:    0ba0        ..      LSRS     r0,r4,#14
        0x00000d26:    0381        ..      LSLS     r1,r0,#14
        0x00000d28:    092d        -.      LSRS     r5,r5,#4
        0x00000d2a:    0116        ..      LSLS     r6,r2,#4
        0x00000d2c:    438c        .C      BICS     r4,r4,r1
        0x00000d2e:    0ba9        ..      LSRS     r1,r5,#14
        0x00000d30:    038a        ..      LSLS     r2,r1,#14
        0x00000d32:    4395        .C      BICS     r5,r5,r2
        0x00000d34:    0b9a        ..      LSRS     r2,r3,#14
        0x00000d36:    0397        ..      LSLS     r7,r2,#14
        0x00000d38:    43bb        .C      BICS     r3,r3,r7
        0x00000d3a:    0936        6.      LSRS     r6,r6,#4
        0x00000d3c:    469c        .F      MOV      r12,r3
        0x00000d3e:    0bb3        ..      LSRS     r3,r6,#14
        0x00000d40:    039f        ..      LSLS     r7,r3,#14
        0x00000d42:    43be        .C      BICS     r6,r6,r7
        0x00000d44:    460f        .F      MOV      r7,r1
        0x00000d46:    435f        _C      MULS     r7,r3,r7
        0x00000d48:    9703        ..      STR      r7,[sp,#0xc]
        0x00000d4a:    462f        /F      MOV      r7,r5
        0x00000d4c:    4377        wC      MULS     r7,r6,r7
        0x00000d4e:    9602        ..      STR      r6,[sp,#8]
        0x00000d50:    194e        N.      ADDS     r6,r1,r5
        0x00000d52:    46be        .F      MOV      lr,r7
        0x00000d54:    9607        ..      STR      r6,[sp,#0x1c]
        0x00000d56:    9f02        ..      LDR      r7,[sp,#8]
        0x00000d58:    19df        ..      ADDS     r7,r3,r7
        0x00000d5a:    437e        ~C      MULS     r6,r7,r6
        0x00000d5c:    9705        ..      STR      r7,[sp,#0x14]
        0x00000d5e:    9f03        ..      LDR      r7,[sp,#0xc]
        0x00000d60:    1bf7        ..      SUBS     r7,r6,r7
        0x00000d62:    4676        vF      MOV      r6,lr
        0x00000d64:    1bbe        ..      SUBS     r6,r7,r6
        0x00000d66:    4677        wF      MOV      r7,lr
        0x00000d68:    013f        ?.      LSLS     r7,r7,#4
        0x00000d6a:    9700        ..      STR      r7,[sp,#0]
        0x00000d6c:    9601        ..      STR      r6,[sp,#4]
        0x00000d6e:    9f03        ..      LDR      r7,[sp,#0xc]
        0x00000d70:    0bb6        ..      LSRS     r6,r6,#14
        0x00000d72:    19f6        ..      ADDS     r6,r6,r7
        0x00000d74:    46b6        .F      MOV      lr,r6
        0x00000d76:    9e01        ..      LDR      r6,[sp,#4]
        0x00000d78:    9f00        ..      LDR      r7,[sp,#0]
        0x00000d7a:    04b6        ..      LSLS     r6,r6,#18
        0x00000d7c:    19bf        ..      ADDS     r7,r7,r6
        0x00000d7e:    d302        ..      BCC      0xd86 ; __aeabi_dmul + 186
        0x00000d80:    4676        vF      MOV      r6,lr
        0x00000d82:    1c76        v.      ADDS     r6,r6,#1
        0x00000d84:    46b6        .F      MOV      lr,r6
        0x00000d86:    4676        vF      MOV      r6,lr
        0x00000d88:    0076        v.      LSLS     r6,r6,#1
        0x00000d8a:    2f00        ./      CMP      r7,#0
        0x00000d8c:    d001        ..      BEQ      0xd92 ; __aeabi_dmul + 198
        0x00000d8e:    2701        .'      MOVS     r7,#1
        0x00000d90:    433e        >C      ORRS     r6,r6,r7
        0x00000d92:    4667        gF      MOV      r7,r12
        0x00000d94:    437d        }C      MULS     r5,r7,r5
        0x00000d96:    9506        ..      STR      r5,[sp,#0x18]
        0x00000d98:    9d02        ..      LDR      r5,[sp,#8]
        0x00000d9a:    4627        'F      MOV      r7,r4
        0x00000d9c:    436f        oC      MULS     r7,r5,r7
        0x00000d9e:    9700        ..      STR      r7,[sp,#0]
        0x00000da0:    007f        ..      LSLS     r7,r7,#1
        0x00000da2:    9d06        ..      LDR      r5,[sp,#0x18]
        0x00000da4:    19be        ..      ADDS     r6,r7,r6
        0x00000da6:    006f        o.      LSLS     r7,r5,#1
        0x00000da8:    19bd        ..      ADDS     r5,r7,r6
        0x00000daa:    4666        fF      MOV      r6,r12
        0x00000dac:    1996        ..      ADDS     r6,r2,r6
        0x00000dae:    9f07        ..      LDR      r7,[sp,#0x1c]
        0x00000db0:    46ae        .F      MOV      lr,r5
        0x00000db2:    4377        wC      MULS     r7,r6,r7
        0x00000db4:    9d06        ..      LDR      r5,[sp,#0x18]
        0x00000db6:    9603        ..      STR      r6,[sp,#0xc]
        0x00000db8:    1b7d        }.      SUBS     r5,r7,r5
        0x00000dba:    9501        ..      STR      r5,[sp,#4]
        0x00000dbc:    1906        ..      ADDS     r6,r0,r4
        0x00000dbe:    9d05        ..      LDR      r5,[sp,#0x14]
        0x00000dc0:    9f00        ..      LDR      r7,[sp,#0]
        0x00000dc2:    4375        uC      MULS     r5,r6,r5
        0x00000dc4:    9602        ..      STR      r6,[sp,#8]
        0x00000dc6:    1bee        ..      SUBS     r6,r5,r7
        0x00000dc8:    9d01        ..      LDR      r5,[sp,#4]
        0x00000dca:    4351        QC      MULS     r1,r2,r1
        0x00000dcc:    1a6d        m.      SUBS     r5,r5,r1
        0x00000dce:    4607        .F      MOV      r7,r0
        0x00000dd0:    435f        _C      MULS     r7,r3,r7
        0x00000dd2:    1bf3        ..      SUBS     r3,r6,r7
        0x00000dd4:    9501        ..      STR      r5,[sp,#4]
        0x00000dd6:    9300        ..      STR      r3,[sp,#0]
        0x00000dd8:    4675        uF      MOV      r5,lr
        0x00000dda:    06eb        ..      LSLS     r3,r5,#27
        0x00000ddc:    d006        ..      BEQ      0xdec ; __aeabi_dmul + 288
        0x00000dde:    e001        ..      B        0xde4 ; __aeabi_dmul + 280
        0x00000de0:    e091        ..      B        0xf06 ; __aeabi_dmul + 570
        0x00000de2:    e08d        ..      B        0xf00 ; __aeabi_dmul + 564
        0x00000de4:    096b        k.      LSRS     r3,r5,#5
        0x00000de6:    2501        .%      MOVS     r5,#1
        0x00000de8:    432b        +C      ORRS     r3,r3,r5
        0x00000dea:    e000        ..      B        0xdee ; __aeabi_dmul + 290
        0x00000dec:    096b        k.      LSRS     r3,r5,#5
        0x00000dee:    2600        .&      MOVS     r6,#0
        0x00000df0:    4635        5F      MOV      r5,r6
        0x00000df2:    46b6        .F      MOV      lr,r6
        0x00000df4:    0a0e        ..      LSRS     r6,r1,#8
        0x00000df6:    062d        -.      LSLS     r5,r5,#24
        0x00000df8:    0609        ..      LSLS     r1,r1,#24
        0x00000dfa:    4335        5C      ORRS     r5,r5,r6
        0x00000dfc:    18cb        ..      ADDS     r3,r1,r3
        0x00000dfe:    4676        vF      MOV      r6,lr
        0x00000e00:    4175        uA      ADCS     r5,r5,r6
        0x00000e02:    46ae        .F      MOV      lr,r5
        0x00000e04:    2100        .!      MOVS     r1,#0
        0x00000e06:    0a3d        =.      LSRS     r5,r7,#8
        0x00000e08:    0609        ..      LSLS     r1,r1,#24
        0x00000e0a:    063e        >.      LSLS     r6,r7,#24
        0x00000e0c:    4329        )C      ORRS     r1,r1,r5
        0x00000e0e:    18f6        ..      ADDS     r6,r6,r3
        0x00000e10:    4675        uF      MOV      r5,lr
        0x00000e12:    4169        iA      ADCS     r1,r1,r5
        0x00000e14:    46b6        .F      MOV      lr,r6
        0x00000e16:    9b01        ..      LDR      r3,[sp,#4]
        0x00000e18:    2600        .&      MOVS     r6,#0
        0x00000e1a:    0d9d        ..      LSRS     r5,r3,#22
        0x00000e1c:    02b7        ..      LSLS     r7,r6,#10
        0x00000e1e:    432f        /C      ORRS     r7,r7,r5
        0x00000e20:    029b        ..      LSLS     r3,r3,#10
        0x00000e22:    4676        vF      MOV      r6,lr
        0x00000e24:    199b        ..      ADDS     r3,r3,r6
        0x00000e26:    414f        OA      ADCS     r7,r7,r1
        0x00000e28:    9900        ..      LDR      r1,[sp,#0]
        0x00000e2a:    2500        .%      MOVS     r5,#0
        0x00000e2c:    0d8e        ..      LSRS     r6,r1,#22
        0x00000e2e:    02ad        ..      LSLS     r5,r5,#10
        0x00000e30:    0289        ..      LSLS     r1,r1,#10
        0x00000e32:    18c9        ..      ADDS     r1,r1,r3
        0x00000e34:    4335        5C      ORRS     r5,r5,r6
        0x00000e36:    417d        }A      ADCS     r5,r5,r7
        0x00000e38:    4350        PC      MULS     r0,r2,r0
        0x00000e3a:    4662        bF      MOV      r2,r12
        0x00000e3c:    4354        TC      MULS     r4,r2,r4
        0x00000e3e:    9b03        ..      LDR      r3,[sp,#0xc]
        0x00000e40:    9a02        ..      LDR      r2,[sp,#8]
        0x00000e42:    435a        ZC      MULS     r2,r3,r2
        0x00000e44:    1a12        ..      SUBS     r2,r2,r0
        0x00000e46:    1b16        ..      SUBS     r6,r2,r4
        0x00000e48:    2200        ."      MOVS     r2,#0
        0x00000e4a:    0eb7        ..      LSRS     r7,r6,#26
        0x00000e4c:    0193        ..      LSLS     r3,r2,#6
        0x00000e4e:    01b6        ..      LSLS     r6,r6,#6
        0x00000e50:    1975        u.      ADDS     r5,r6,r5
        0x00000e52:    433b        ;C      ORRS     r3,r3,r7
        0x00000e54:    4153        SA      ADCS     r3,r3,r2
        0x00000e56:    0b07        ..      LSRS     r7,r0,#12
        0x00000e58:    0512        ..      LSLS     r2,r2,#20
        0x00000e5a:    0500        ..      LSLS     r0,r0,#20
        0x00000e5c:    1945        E.      ADDS     r5,r0,r5
        0x00000e5e:    433a        :C      ORRS     r2,r2,r7
        0x00000e60:    415a        ZA      ADCS     r2,r2,r3
        0x00000e62:    2000        .       MOVS     r0,#0
        0x00000e64:    0603        ..      LSLS     r3,r0,#24
        0x00000e66:    0a27        '.      LSRS     r7,r4,#8
        0x00000e68:    0620         .      LSLS     r0,r4,#24
        0x00000e6a:    433b        ;C      ORRS     r3,r3,r7
        0x00000e6c:    1844        D.      ADDS     r4,r0,r1
        0x00000e6e:    2614        .&      MOVS     r6,#0x14
        0x00000e70:    416b        kA      ADCS     r3,r3,r5
        0x00000e72:    42ab        .B      CMP      r3,r5
        0x00000e74:    d200        ..      BCS      0xe78 ; __aeabi_dmul + 428
        0x00000e76:    1c52        R.      ADDS     r2,r2,#1
        0x00000e78:    2001        .       MOVS     r0,#1
        0x00000e7a:    0240        @.      LSLS     r0,r0,#9
        0x00000e7c:    4282        .B      CMP      r2,r0
        0x00000e7e:    d303        ..      BCC      0xe88 ; __aeabi_dmul + 444
        0x00000e80:    2615        .&      MOVS     r6,#0x15
        0x00000e82:    2102        .!      MOVS     r1,#2
        0x00000e84:    43c9        .C      MVNS     r1,r1
        0x00000e86:    e001        ..      B        0xe8c ; __aeabi_dmul + 448
        0x00000e88:    2103        .!      MOVS     r1,#3
        0x00000e8a:    43c9        .C      MVNS     r1,r1
        0x00000e8c:    2020                MOVS     r0,#0x20
        0x00000e8e:    1b85        ..      SUBS     r5,r0,r6
        0x00000e90:    40aa        .@      LSLS     r2,r2,r5
        0x00000e92:    461f        .F      MOV      r7,r3
        0x00000e94:    40af        .@      LSLS     r7,r7,r5
        0x00000e96:    40f3        .@      LSRS     r3,r3,r6
        0x00000e98:    4313        .C      ORRS     r3,r3,r2
        0x00000e9a:    4620         F      MOV      r0,r4
        0x00000e9c:    9a04        ..      LDR      r2,[sp,#0x10]
        0x00000e9e:    40f0        .@      LSRS     r0,r0,r6
        0x00000ea0:    1412        ..      ASRS     r2,r2,#16
        0x00000ea2:    1889        ..      ADDS     r1,r1,r2
        0x00000ea4:    0509        ..      LSLS     r1,r1,#20
        0x00000ea6:    185a        Z.      ADDS     r2,r3,r1
        0x00000ea8:    9904        ..      LDR      r1,[sp,#0x10]
        0x00000eaa:    4338        8C      ORRS     r0,r0,r7
        0x00000eac:    07c9        ..      LSLS     r1,r1,#31
        0x00000eae:    4051        Q@      EORS     r1,r1,r2
        0x00000eb0:    40ac        .@      LSLS     r4,r4,r5
        0x00000eb2:    d009        ..      BEQ      0xec8 ; __aeabi_dmul + 508
        0x00000eb4:    2301        .#      MOVS     r3,#1
        0x00000eb6:    409c        .@      LSLS     r4,r4,r3
        0x00000eb8:    d306        ..      BCC      0xec8 ; __aeabi_dmul + 508
        0x00000eba:    2300        .#      MOVS     r3,#0
        0x00000ebc:    1c40        @.      ADDS     r0,r0,#1
        0x00000ebe:    4159        YA      ADCS     r1,r1,r3
        0x00000ec0:    2c00        .,      CMP      r4,#0
        0x00000ec2:    d101        ..      BNE      0xec8 ; __aeabi_dmul + 508
        0x00000ec4:    0840        @.      LSRS     r0,r0,#1
        0x00000ec6:    0040        @.      LSLS     r0,r0,#1
        0x00000ec8:    4b1f        .K      LDR      r3,[pc,#124] ; [0xf48] = 0x7ff00000
        0x00000eca:    2a00        .*      CMP      r2,#0
        0x00000ecc:    db03        ..      BLT      0xed6 ; __aeabi_dmul + 522
        0x00000ece:    421a        .B      TST      r2,r3
        0x00000ed0:    d001        ..      BEQ      0xed6 ; __aeabi_dmul + 522
        0x00000ed2:    438b        .C      BICS     r3,r3,r1
        0x00000ed4:    d112        ..      BNE      0xefc ; __aeabi_dmul + 560
        0x00000ed6:    2201        ."      MOVS     r2,#1
        0x00000ed8:    9804        ..      LDR      r0,[sp,#0x10]
        0x00000eda:    0692        ..      LSLS     r2,r2,#26
        0x00000edc:    4290        .B      CMP      r0,r2
        0x00000ede:    db07        ..      BLT      0xef0 ; __aeabi_dmul + 548
        0x00000ee0:    2005        .       MOVS     r0,#5
        0x00000ee2:    0740        @.      LSLS     r0,r0,#29
        0x00000ee4:    1809        ..      ADDS     r1,r1,r0
        0x00000ee6:    4819        .H      LDR      r0,[pc,#100] ; [0xf4c] = 0x7fffffff
        0x00000ee8:    4301        .C      ORRS     r1,r1,r0
        0x00000eea:    12c0        ..      ASRS     r0,r0,#11
        0x00000eec:    4041        A@      EORS     r1,r1,r0
        0x00000eee:    e004        ..      B        0xefa ; __aeabi_dmul + 558
        0x00000ef0:    2003        .       MOVS     r0,#3
        0x00000ef2:    0740        @.      LSLS     r0,r0,#29
        0x00000ef4:    1808        ..      ADDS     r0,r1,r0
        0x00000ef6:    0fc1        ..      LSRS     r1,r0,#31
        0x00000ef8:    07c9        ..      LSLS     r1,r1,#31
        0x00000efa:    2000        .       MOVS     r0,#0
        0x00000efc:    b009        ..      ADD      sp,sp,#0x24
        0x00000efe:    bdf0        ..      POP      {r4-r7,pc}
        0x00000f00:    2000        .       MOVS     r0,#0
        0x00000f02:    07e9        ..      LSLS     r1,r5,#31
        0x00000f04:    e7fa        ..      B        0xefc ; __aeabi_dmul + 560
        0x00000f06:    1806        ..      ADDS     r6,r0,r0
        0x00000f08:    460c        .F      MOV      r4,r1
        0x00000f0a:    414c        LA      ADCS     r4,r4,r1
        0x00000f0c:    4810        .H      LDR      r0,[pc,#64] ; [0xf50] = 0xffe00000
        0x00000f0e:    4276        vB      RSBS     r6,r6,#0
        0x00000f10:    41a0        .A      SBCS     r0,r0,r4
        0x00000f12:    d314        ..      BCC      0xf3e ; __aeabi_dmul + 626
        0x00000f14:    1894        ..      ADDS     r4,r2,r2
        0x00000f16:    461a        .F      MOV      r2,r3
        0x00000f18:    415a        ZA      ADCS     r2,r2,r3
        0x00000f1a:    480d        .H      LDR      r0,[pc,#52] ; [0xf50] = 0xffe00000
        0x00000f1c:    4264        dB      RSBS     r4,r4,#0
        0x00000f1e:    4190        .A      SBCS     r0,r0,r2
        0x00000f20:    d30d        ..      BCC      0xf3e ; __aeabi_dmul + 626
        0x00000f22:    2001        .       MOVS     r0,#1
        0x00000f24:    0049        I.      LSLS     r1,r1,#1
        0x00000f26:    0540        @.      LSLS     r0,r0,#21
        0x00000f28:    4281        .B      CMP      r1,r0
        0x00000f2a:    d308        ..      BCC      0xf3e ; __aeabi_dmul + 626
        0x00000f2c:    0059        Y.      LSLS     r1,r3,#1
        0x00000f2e:    4281        .B      CMP      r1,r0
        0x00000f30:    d305        ..      BCC      0xf3e ; __aeabi_dmul + 626
        0x00000f32:    0fe9        ..      LSRS     r1,r5,#31
        0x00000f34:    4a04        .J      LDR      r2,[pc,#16] ; [0xf48] = 0x7ff00000
        0x00000f36:    07c9        ..      LSLS     r1,r1,#31
        0x00000f38:    2000        .       MOVS     r0,#0
        0x00000f3a:    4311        .C      ORRS     r1,r1,r2
        0x00000f3c:    e7de        ..      B        0xefc ; __aeabi_dmul + 560
        0x00000f3e:    2000        .       MOVS     r0,#0
        0x00000f40:    4904        .I      LDR      r1,[pc,#16] ; [0xf54] = 0x7ff80000
        0x00000f42:    e7db        ..      B        0xefc ; __aeabi_dmul + 560
    $d
        0x00000f44:    07ff0000    ....    DCD    134152192
        0x00000f48:    7ff00000    ....    DCD    2146435072
        0x00000f4c:    7fffffff    ....    DCD    2147483647
        0x00000f50:    ffe00000    ....    DCD    4292870144
        0x00000f54:    7ff80000    ....    DCD    2146959360
    $t
    .text
    __aeabi_f2d
    _f2d
        0x00000f58:    2101        .!      MOVS     r1,#1
        0x00000f5a:    05c9        ..      LSLS     r1,r1,#23
        0x00000f5c:    1841        A.      ADDS     r1,r0,r1
        0x00000f5e:    004a        J.      LSLS     r2,r1,#1
        0x00000f60:    0e52        R.      LSRS     r2,r2,#25
        0x00000f62:    d00b        ..      BEQ      0xf7c ; __aeabi_f2d + 36
        0x00000f64:    10c1        ..      ASRS     r1,r0,#3
        0x00000f66:    2207        ."      MOVS     r2,#7
        0x00000f68:    06d2        ..      LSLS     r2,r2,#27
        0x00000f6a:    1889        ..      ADDS     r1,r1,r2
        0x00000f6c:    0740        @.      LSLS     r0,r0,#29
        0x00000f6e:    4252        RB      RSBS     r2,r2,#0
        0x00000f70:    188a        ..      ADDS     r2,r1,r2
        0x00000f72:    d502        ..      BPL      0xf7a ; __aeabi_f2d + 34
        0x00000f74:    2209        ."      MOVS     r2,#9
        0x00000f76:    0712        ..      LSLS     r2,r2,#28
        0x00000f78:    1889        ..      ADDS     r1,r1,r2
        0x00000f7a:    4770        pG      BX       lr
        0x00000f7c:    0209        ..      LSLS     r1,r1,#8
        0x00000f7e:    d506        ..      BPL      0xf8e ; __aeabi_f2d + 54
        0x00000f80:    4601        .F      MOV      r1,r0
        0x00000f82:    0040        @.      LSLS     r0,r0,#1
        0x00000f84:    d0f9        ..      BEQ      0xf7a ; __aeabi_f2d + 34
        0x00000f86:    0fc9        ..      LSRS     r1,r1,#31
        0x00000f88:    07c9        ..      LSLS     r1,r1,#31
        0x00000f8a:    2000        .       MOVS     r0,#0
        0x00000f8c:    4770        pG      BX       lr
        0x00000f8e:    0242        B.      LSLS     r2,r0,#9
        0x00000f90:    d002        ..      BEQ      0xf98 ; __aeabi_f2d + 64
        0x00000f92:    2000        .       MOVS     r0,#0
        0x00000f94:    4903        .I      LDR      r1,[pc,#12] ; [0xfa4] = 0x7ff80000
        0x00000f96:    4770        pG      BX       lr
        0x00000f98:    2107        .!      MOVS     r1,#7
        0x00000f9a:    0509        ..      LSLS     r1,r1,#20
        0x00000f9c:    4301        .C      ORRS     r1,r1,r0
        0x00000f9e:    4610        .F      MOV      r0,r2
        0x00000fa0:    4770        pG      BX       lr
    $d
        0x00000fa2:    0000        ..      DCW    0
        0x00000fa4:    7ff80000    ....    DCD    2146959360
    $t
    .text
    _printf_int_common
        0x00000fa8:    b5ff        ..      PUSH     {r0-r7,lr}
        0x00000faa:    4604        .F      MOV      r4,r0
        0x00000fac:    460d        .F      MOV      r5,r1
        0x00000fae:    b081        ..      SUB      sp,sp,#4
        0x00000fb0:    3024        $0      ADDS     r0,r0,#0x24
        0x00000fb2:    9000        ..      STR      r0,[sp,#0]
        0x00000fb4:    6821        !h      LDR      r1,[r4,#0]
        0x00000fb6:    0688        ..      LSLS     r0,r1,#26
        0x00000fb8:    d504        ..      BPL      0xfc4 ; _printf_int_common + 28
        0x00000fba:    2210        ."      MOVS     r2,#0x10
        0x00000fbc:    69e0        .i      LDR      r0,[r4,#0x1c]
        0x00000fbe:    4391        .C      BICS     r1,r1,r2
        0x00000fc0:    6021        !`      STR      r1,[r4,#0]
        0x00000fc2:    e000        ..      B        0xfc6 ; _printf_int_common + 30
        0x00000fc4:    2001        .       MOVS     r0,#1
        0x00000fc6:    2700        .'      MOVS     r7,#0
        0x00000fc8:    42a8        .B      CMP      r0,r5
        0x00000fca:    dd00        ..      BLE      0xfce ; _printf_int_common + 38
        0x00000fcc:    1b47        G.      SUBS     r7,r0,r5
        0x00000fce:    9804        ..      LDR      r0,[sp,#0x10]
        0x00000fd0:    69a1        .i      LDR      r1,[r4,#0x18]
        0x00000fd2:    197a        z.      ADDS     r2,r7,r5
        0x00000fd4:    1810        ..      ADDS     r0,r2,r0
        0x00000fd6:    1a08        ..      SUBS     r0,r1,r0
        0x00000fd8:    61a0        .a      STR      r0,[r4,#0x18]
        0x00000fda:    6820         h      LDR      r0,[r4,#0]
        0x00000fdc:    06c0        ..      LSLS     r0,r0,#27
        0x00000fde:    d402        ..      BMI      0xfe6 ; _printf_int_common + 62
        0x00000fe0:    4620         F      MOV      r0,r4
        0x00000fe2:    46c0        .F      MOV      r8,r8
        0x00000fe4:    46c0        .F      MOV      r8,r8
        0x00000fe6:    2600        .&      MOVS     r6,#0
        0x00000fe8:    e008        ..      B        0xffc ; _printf_int_common + 84
        0x00000fea:    9803        ..      LDR      r0,[sp,#0xc]
        0x00000fec:    6862        bh      LDR      r2,[r4,#4]
        0x00000fee:    68a1        .h      LDR      r1,[r4,#8]
        0x00000ff0:    5d80        .]      LDRB     r0,[r0,r6]
        0x00000ff2:    4790        .G      BLX      r2
        0x00000ff4:    6a20         j      LDR      r0,[r4,#0x20]
        0x00000ff6:    1c40        @.      ADDS     r0,r0,#1
        0x00000ff8:    1c76        v.      ADDS     r6,r6,#1
        0x00000ffa:    6220         b      STR      r0,[r4,#0x20]
        0x00000ffc:    9804        ..      LDR      r0,[sp,#0x10]
        0x00000ffe:    4286        .B      CMP      r6,r0
        0x00001000:    dbf3        ..      BLT      0xfea ; _printf_int_common + 66
        0x00001002:    6820         h      LDR      r0,[r4,#0]
        0x00001004:    06c0        ..      LSLS     r0,r0,#27
        0x00001006:    d50a        ..      BPL      0x101e ; _printf_int_common + 118
        0x00001008:    4620         F      MOV      r0,r4
        0x0000100a:    46c0        .F      MOV      r8,r8
        0x0000100c:    46c0        .F      MOV      r8,r8
        0x0000100e:    e006        ..      B        0x101e ; _printf_int_common + 118
        0x00001010:    6862        bh      LDR      r2,[r4,#4]
        0x00001012:    68a1        .h      LDR      r1,[r4,#8]
        0x00001014:    2030        0       MOVS     r0,#0x30
        0x00001016:    4790        .G      BLX      r2
        0x00001018:    6a20         j      LDR      r0,[r4,#0x20]
        0x0000101a:    1c40        @.      ADDS     r0,r0,#1
        0x0000101c:    6220         b      STR      r0,[r4,#0x20]
        0x0000101e:    4638        8F      MOV      r0,r7
        0x00001020:    1e7f        ..      SUBS     r7,r7,#1
        0x00001022:    2800        .(      CMP      r0,#0
        0x00001024:    dcf4        ..      BGT      0x1010 ; _printf_int_common + 104
        0x00001026:    e007        ..      B        0x1038 ; _printf_int_common + 144
        0x00001028:    9800        ..      LDR      r0,[sp,#0]
        0x0000102a:    6862        bh      LDR      r2,[r4,#4]
        0x0000102c:    68a1        .h      LDR      r1,[r4,#8]
        0x0000102e:    5d40        @]      LDRB     r0,[r0,r5]
        0x00001030:    4790        .G      BLX      r2
        0x00001032:    6a20         j      LDR      r0,[r4,#0x20]
        0x00001034:    1c40        @.      ADDS     r0,r0,#1
        0x00001036:    6220         b      STR      r0,[r4,#0x20]
        0x00001038:    4628        (F      MOV      r0,r5
        0x0000103a:    1e6d        m.      SUBS     r5,r5,#1
        0x0000103c:    2800        .(      CMP      r0,#0
        0x0000103e:    dcf3        ..      BGT      0x1028 ; _printf_int_common + 128
        0x00001040:    4620         F      MOV      r0,r4
        0x00001042:    46c0        .F      MOV      r8,r8
        0x00001044:    46c0        .F      MOV      r8,r8
        0x00001046:    6821        !h      LDR      r1,[r4,#0]
        0x00001048:    2002        .       MOVS     r0,#2
        0x0000104a:    0609        ..      LSLS     r1,r1,#24
        0x0000104c:    d400        ..      BMI      0x1050 ; _printf_int_common + 168
        0x0000104e:    2001        .       MOVS     r0,#1
        0x00001050:    b005        ..      ADD      sp,sp,#0x14
        0x00001052:    bdf0        ..      POP      {r4-r7,pc}
    .text
    _printf_char_file
        0x00001054:    4b08        .K      LDR      r3,[pc,#32] ; [0x1078] = 0x231f
        0x00001056:    b570        p.      PUSH     {r4-r6,lr}
        0x00001058:    460c        .F      MOV      r4,r1
        0x0000105a:    447b        {D      ADD      r3,r3,pc
        0x0000105c:    f000f855    ..U.    BL       _printf_char_common ; 0x110a
        0x00001060:    4605        .F      MOV      r5,r0
        0x00001062:    4620         F      MOV      r0,r4
        0x00001064:    f002f987    ....    BL       ferror ; 0x3376
        0x00001068:    2800        .(      CMP      r0,#0
        0x0000106a:    d002        ..      BEQ      0x1072 ; _printf_char_file + 30
        0x0000106c:    2000        .       MOVS     r0,#0
        0x0000106e:    43c0        .C      MVNS     r0,r0
        0x00001070:    bd70        p.      POP      {r4-r6,pc}
        0x00001072:    4628        (F      MOV      r0,r5
        0x00001074:    bd70        p.      POP      {r4-r6,pc}
    $d
        0x00001076:    0000        ..      DCW    0
        0x00001078:    0000231f    .#..    DCD    8991
    $t
    .text
    __fpl_dcmp_InfNaN
        0x0000107c:    b5f8        ..      PUSH     {r3-r7,lr}
        0x0000107e:    461c        .F      MOV      r4,r3
        0x00001080:    4b1e        .K      LDR      r3,[pc,#120] ; [0x10fc] = 0xffe00000
        0x00001082:    004e        N.      LSLS     r6,r1,#1
        0x00001084:    9d06        ..      LDR      r5,[sp,#0x18]
        0x00001086:    429e        .B      CMP      r6,r3
        0x00001088:    d80a        ..      BHI      0x10a0 ; __fpl_dcmp_InfNaN + 36
        0x0000108a:    429e        .B      CMP      r6,r3
        0x0000108c:    d101        ..      BNE      0x1092 ; __fpl_dcmp_InfNaN + 22
        0x0000108e:    2800        .(      CMP      r0,#0
        0x00001090:    d106        ..      BNE      0x10a0 ; __fpl_dcmp_InfNaN + 36
        0x00001092:    0066        f.      LSLS     r6,r4,#1
        0x00001094:    429e        .B      CMP      r6,r3
        0x00001096:    d803        ..      BHI      0x10a0 ; __fpl_dcmp_InfNaN + 36
        0x00001098:    429e        .B      CMP      r6,r3
        0x0000109a:    d10a        ..      BNE      0x10b2 ; __fpl_dcmp_InfNaN + 54
        0x0000109c:    2a00        .*      CMP      r2,#0
        0x0000109e:    d008        ..      BEQ      0x10b2 ; __fpl_dcmp_InfNaN + 54
        0x000010a0:    230d        .#      MOVS     r3,#0xd
        0x000010a2:    041b        ..      LSLS     r3,r3,#16
        0x000010a4:    421d        .B      TST      r5,r3
        0x000010a6:    d023        #.      BEQ      0x10f0 ; __fpl_dcmp_InfNaN + 116
        0x000010a8:    4629        )F      MOV      r1,r5
        0x000010aa:    2000        .       MOVS     r0,#0
        0x000010ac:    f000f840    ..@.    BL       __fpl_cmpreturn ; 0x1130
        0x000010b0:    bdf8        ..      POP      {r3-r7,pc}
        0x000010b2:    460b        .F      MOV      r3,r1
        0x000010b4:    4323        #C      ORRS     r3,r3,r4
        0x000010b6:    d405        ..      BMI      0x10c4 ; __fpl_dcmp_InfNaN + 72
        0x000010b8:    42a1        .B      CMP      r1,r4
        0x000010ba:    d100        ..      BNE      0x10be ; __fpl_dcmp_InfNaN + 66
        0x000010bc:    4290        .B      CMP      r0,r2
        0x000010be:    f3ef8000    ....    MRS      r0,APSR ; formerly CPSR
        0x000010c2:    bdf8        ..      POP      {r3-r7,pc}
        0x000010c4:    2309        .#      MOVS     r3,#9
        0x000010c6:    071b        ..      LSLS     r3,r3,#28
        0x000010c8:    00dd        ..      LSLS     r5,r3,#3
        0x000010ca:    428c        .B      CMP      r4,r1
        0x000010cc:    d006        ..      BEQ      0x10dc ; __fpl_dcmp_InfNaN + 96
        0x000010ce:    f3ef8000    ....    MRS      r0,APSR ; formerly CPSR
        0x000010d2:    4398        .C      BICS     r0,r0,r3
        0x000010d4:    1a61        a.      SUBS     r1,r4,r1
        0x000010d6:    d206        ..      BCS      0x10e6 ; __fpl_dcmp_InfNaN + 106
        0x000010d8:    4328        (C      ORRS     r0,r0,r5
        0x000010da:    e004        ..      B        0x10e6 ; __fpl_dcmp_InfNaN + 106
        0x000010dc:    1a10        ..      SUBS     r0,r2,r0
        0x000010de:    f3ef8000    ....    MRS      r0,APSR ; formerly CPSR
        0x000010e2:    d303        ..      BCC      0x10ec ; __fpl_dcmp_InfNaN + 112
        0x000010e4:    4398        .C      BICS     r0,r0,r3
        0x000010e6:    f3808800    ....    MSR      APSR_nzcvq,r0 ; formerly CPSR_f
        0x000010ea:    bdf8        ..      POP      {r3-r7,pc}
        0x000010ec:    4398        .C      BICS     r0,r0,r3
        0x000010ee:    e7f3        ..      B        0x10d8 ; __fpl_dcmp_InfNaN + 92
        0x000010f0:    4623        #F      MOV      r3,r4
        0x000010f2:    9500        ..      STR      r5,[sp,#0]
        0x000010f4:    f000f834    ..4.    BL       __fpl_dcheck_NaN2 ; 0x1160
        0x000010f8:    bdf8        ..      POP      {r3-r7,pc}
    $d
        0x000010fa:    0000        ..      DCW    0
        0x000010fc:    ffe00000    ....    DCD    4292870144
    $t
    .text
    _printf_input_char
        0x00001100:    6901        .i      LDR      r1,[r0,#0x10]
        0x00001102:    1c4a        J.      ADDS     r2,r1,#1
        0x00001104:    6102        .a      STR      r2,[r0,#0x10]
        0x00001106:    7808        .x      LDRB     r0,[r1,#0]
        0x00001108:    4770        pG      BX       lr
    _printf_char_common
        0x0000110a:    b500        ..      PUSH     {lr}
        0x0000110c:    b08f        ..      SUB      sp,sp,#0x3c
        0x0000110e:    9102        ..      STR      r1,[sp,#8]
        0x00001110:    2100        .!      MOVS     r1,#0
        0x00001112:    9105        ..      STR      r1,[sp,#0x14]
        0x00001114:    4905        .I      LDR      r1,[pc,#20] ; [0x112c] = 0xffffffe5
        0x00001116:    9301        ..      STR      r3,[sp,#4]
        0x00001118:    4479        yD      ADD      r1,r1,pc
        0x0000111a:    9103        ..      STR      r1,[sp,#0xc]
        0x0000111c:    4611        .F      MOV      r1,r2
        0x0000111e:    9004        ..      STR      r0,[sp,#0x10]
        0x00001120:    4668        hF      MOV      r0,sp
        0x00001122:    f7fff89d    ....    BL       __printf ; 0x260
        0x00001126:    b00f        ..      ADD      sp,sp,#0x3c
        0x00001128:    bd00        ..      POP      {pc}
    $d
        0x0000112a:    0000        ..      DCW    0
        0x0000112c:    ffffffe5    ....    DCD    4294967269
    $t
    .text
    __fpl_cmpreturn
        0x00001130:    02ca        ..      LSLS     r2,r1,#11
        0x00001132:    d510        ..      BPL      0x1156 ; __fpl_cmpreturn + 38
        0x00001134:    034a        J.      LSLS     r2,r1,#13
        0x00001136:    0f52        R.      LSRS     r2,r2,#29
        0x00001138:    d004        ..      BEQ      0x1144 ; __fpl_cmpreturn + 20
        0x0000113a:    03c8        ..      LSLS     r0,r1,#15
        0x0000113c:    43c0        .C      MVNS     r0,r0
        0x0000113e:    2101        .!      MOVS     r1,#1
        0x00001140:    4088        .@      LSLS     r0,r0,r1
        0x00001142:    4770        pG      BX       lr
        0x00001144:    4a05        .J      LDR      r2,[pc,#20] ; [0x115c] = 0x30000000
        0x00001146:    f3ef8100    ....    MRS      r1,APSR ; formerly CPSR
        0x0000114a:    0108        ..      LSLS     r0,r1,#4
        0x0000114c:    0900        ..      LSRS     r0,r0,#4
        0x0000114e:    4310        .C      ORRS     r0,r0,r2
        0x00001150:    f3808800    ....    MSR      APSR_nzcvq,r0 ; formerly CPSR_f
        0x00001154:    4770        pG      BX       lr
        0x00001156:    2000        .       MOVS     r0,#0
        0x00001158:    4770        pG      BX       lr
    $d
        0x0000115a:    0000        ..      DCW    0
        0x0000115c:    30000000    ...0    DCD    805306368
    $t
    .text
    __fpl_dcheck_NaN2
        0x00001160:    b510        ..      PUSH     {r4,lr}
        0x00001162:    2000        .       MOVS     r0,#0
        0x00001164:    4902        .I      LDR      r1,[pc,#8] ; [0x1170] = 0x7ff80000
        0x00001166:    9a02        ..      LDR      r2,[sp,#8]
        0x00001168:    f000f829    ..).    BL       __fpl_return_NaN ; 0x11be
        0x0000116c:    bd10        ..      POP      {r4,pc}
    $d
        0x0000116e:    0000        ..      DCW    0
        0x00001170:    7ff80000    ....    DCD    2146959360
    $t
    .text
    __user_setup_stackheap
        0x00001174:    4675        uF      MOV      r5,lr
        0x00001176:    f000f855    ..U.    BL       __user_libspace ; 0x1224
        0x0000117a:    46ae        .F      MOV      lr,r5
        0x0000117c:    0005        ..      MOVS     r5,r0
        0x0000117e:    4669        iF      MOV      r1,sp
        0x00001180:    4653        SF      MOV      r3,r10
        0x00001182:    08c0        ..      LSRS     r0,r0,#3
        0x00001184:    00c0        ..      LSLS     r0,r0,#3
        0x00001186:    4685        .F      MOV      sp,r0
        0x00001188:    b018        ..      ADD      sp,sp,#0x60
        0x0000118a:    b520         .      PUSH     {r5,lr}
        0x0000118c:    f7fff80e    ....    BL       __user_initial_stackheap ; 0x1ac
        0x00001190:    bc60        `.      POP      {r5,r6}
        0x00001192:    2700        .'      MOVS     r7,#0
        0x00001194:    0849        I.      LSRS     r1,r1,#1
        0x00001196:    46b6        .F      MOV      lr,r6
        0x00001198:    2600        .&      MOVS     r6,#0
        0x0000119a:    c5c0        ..      STM      r5!,{r6,r7}
        0x0000119c:    c5c0        ..      STM      r5!,{r6,r7}
        0x0000119e:    c5c0        ..      STM      r5!,{r6,r7}
        0x000011a0:    c5c0        ..      STM      r5!,{r6,r7}
        0x000011a2:    c5c0        ..      STM      r5!,{r6,r7}
        0x000011a4:    c5c0        ..      STM      r5!,{r6,r7}
        0x000011a6:    c5c0        ..      STM      r5!,{r6,r7}
        0x000011a8:    c5c0        ..      STM      r5!,{r6,r7}
        0x000011aa:    3d40        @=      SUBS     r5,r5,#0x40
        0x000011ac:    0049        I.      LSLS     r1,r1,#1
        0x000011ae:    468d        .F      MOV      sp,r1
        0x000011b0:    4770        pG      BX       lr
    .text
    exit
        0x000011b2:    4604        .F      MOV      r4,r0
        0x000011b4:    46c0        .F      MOV      r8,r8
        0x000011b6:    46c0        .F      MOV      r8,r8
        0x000011b8:    4620         F      MOV      r0,r4
        0x000011ba:    f7feffd6    ....    BL       __rt_exit ; 0x16a
    .text
    __fpl_return_NaN
        0x000011be:    b510        ..      PUSH     {r4,lr}
        0x000011c0:    460c        .F      MOV      r4,r1
        0x000011c2:    0711        ..      LSLS     r1,r2,#28
        0x000011c4:    0f09        ..      LSRS     r1,r1,#28
        0x000011c6:    2909        .)      CMP      r1,#9
        0x000011c8:    d004        ..      BEQ      0x11d4 ; __fpl_return_NaN + 22
        0x000011ca:    290a        .)      CMP      r1,#0xa
        0x000011cc:    d00a        ..      BEQ      0x11e4 ; __fpl_return_NaN + 38
        0x000011ce:    2908        .)      CMP      r1,#8
        0x000011d0:    d10c        ..      BNE      0x11ec ; __fpl_return_NaN + 46
        0x000011d2:    e004        ..      B        0x11de ; __fpl_return_NaN + 32
        0x000011d4:    4611        .F      MOV      r1,r2
        0x000011d6:    2008        .       MOVS     r0,#8
        0x000011d8:    f7ffffaa    ....    BL       __fpl_cmpreturn ; 0x1130
        0x000011dc:    e006        ..      B        0x11ec ; __fpl_return_NaN + 46
        0x000011de:    0651        Q.      LSLS     r1,r2,#25
        0x000011e0:    d506        ..      BPL      0x11f0 ; __fpl_return_NaN + 50
        0x000011e2:    e001        ..      B        0x11e8 ; __fpl_return_NaN + 42
        0x000011e4:    0651        Q.      LSLS     r1,r2,#25
        0x000011e6:    d501        ..      BPL      0x11ec ; __fpl_return_NaN + 46
        0x000011e8:    2001        .       MOVS     r0,#1
        0x000011ea:    07c0        ..      LSLS     r0,r0,#31
        0x000011ec:    4621        !F      MOV      r1,r4
        0x000011ee:    bd10        ..      POP      {r4,pc}
        0x000011f0:    06d1        ..      LSLS     r1,r2,#27
        0x000011f2:    d50a        ..      BPL      0x120a ; __fpl_return_NaN + 76
        0x000011f4:    0101        ..      LSLS     r1,r0,#4
        0x000011f6:    0909        ..      LSRS     r1,r1,#4
        0x000011f8:    2200        ."      MOVS     r2,#0
        0x000011fa:    08cb        ..      LSRS     r3,r1,#3
        0x000011fc:    0754        T.      LSLS     r4,r2,#29
        0x000011fe:    0749        I.      LSLS     r1,r1,#29
        0x00001200:    0e00        ..      LSRS     r0,r0,#24
        0x00001202:    431c        .C      ORRS     r4,r4,r3
        0x00001204:    0600        ..      LSLS     r0,r0,#24
        0x00001206:    4304        .C      ORRS     r4,r4,r0
        0x00001208:    e009        ..      B        0x121e ; __fpl_return_NaN + 96
        0x0000120a:    0f41        A.      LSRS     r1,r0,#29
        0x0000120c:    0220         .      LSLS     r0,r4,#8
        0x0000120e:    0749        I.      LSLS     r1,r1,#29
        0x00001210:    0a00        ..      LSRS     r0,r0,#8
        0x00001212:    4301        .C      ORRS     r1,r1,r0
        0x00001214:    0e20         .      LSRS     r0,r4,#24
        0x00001216:    0600        ..      LSLS     r0,r0,#24
        0x00001218:    221d        ."      MOVS     r2,#0x1d
        0x0000121a:    41d1        .A      RORS     r1,r1,r2
        0x0000121c:    4301        .C      ORRS     r1,r1,r0
        0x0000121e:    4608        .F      MOV      r0,r1
        0x00001220:    e7e4        ..      B        0x11ec ; __fpl_return_NaN + 46
        0x00001222:    0000        ..      MOVS     r0,r0
    .text
    __user_libspace
    __user_perproc_libspace
    __user_perthread_libspace
        0x00001224:    4800        .H      LDR      r0,[pc,#0] ; [0x1228] = 0x20000278
        0x00001226:    4770        pG      BX       lr
    $d
        0x00001228:    20000278    x..     DCD    536871544
    $t
    .text
    _sys_exit
        0x0000122c:    4901        .I      LDR      r1,[pc,#4] ; [0x1234] = 0x20026
        0x0000122e:    2018        .       MOVS     r0,#0x18
        0x00001230:    beab        ..      BKPT     #0xab
        0x00001232:    e7fe        ..      B        0x1232 ; _sys_exit + 6
    $d
        0x00001234:    00020026    &...    DCD    131110
    $t
    .text
    __I$use$semihosting
    __use_no_semihosting_swi
        0x00001238:    4770        pG      BX       lr
        0x0000123a:    0000        ..      MOVS     r0,r0
    i.ADC_HANDLE
    ADC_HANDLE
        0x0000123c:    b5f0        ..      PUSH     {r4-r7,lr}
        0x0000123e:    b085        ..      SUB      sp,sp,#0x14
        0x00001240:    48a9        .H      LDR      r0,[pc,#676] ; [0x14e8] = 0x2000001c
        0x00001242:    2100        .!      MOVS     r1,#0
        0x00001244:    7181        .q      STRB     r1,[r0,#6]
        0x00001246:    2101        .!      MOVS     r1,#1
        0x00001248:    4ca8        .L      LDR      r4,[pc,#672] ; [0x14ec] = 0x200000d4
        0x0000124a:    4625        %F      MOV      r5,r4
        0x0000124c:    3560        `5      ADDS     r5,r5,#0x60
        0x0000124e:    4627        'F      MOV      r7,r4
        0x00001250:    3718        .7      ADDS     r7,r7,#0x18
        0x00001252:    1c4a        J.      ADDS     r2,r1,#1
        0x00001254:    0090        ..      LSLS     r0,r2,#2
        0x00001256:    5823        #X      LDR      r3,[r4,r0]
        0x00001258:    0089        ..      LSLS     r1,r1,#2
        0x0000125a:    5063        cP      STR      r3,[r4,r1]
        0x0000125c:    583b        ;X      LDR      r3,[r7,r0]
        0x0000125e:    507b        {P      STR      r3,[r7,r1]
        0x00001260:    4ba2        .K      LDR      r3,[pc,#648] ; [0x14ec] = 0x200000d4
        0x00001262:    3330        03      ADDS     r3,r3,#0x30
        0x00001264:    581e        .X      LDR      r6,[r3,r0]
        0x00001266:    505e        ^P      STR      r6,[r3,r1]
        0x00001268:    3318        .3      ADDS     r3,r3,#0x18
        0x0000126a:    581e        .X      LDR      r6,[r3,r0]
        0x0000126c:    505e        ^P      STR      r6,[r3,r1]
        0x0000126e:    582b        +X      LDR      r3,[r5,r0]
        0x00001270:    506b        kP      STR      r3,[r5,r1]
        0x00001272:    4b9e        .K      LDR      r3,[pc,#632] ; [0x14ec] = 0x200000d4
        0x00001274:    3378        x3      ADDS     r3,r3,#0x78
        0x00001276:    5818        .X      LDR      r0,[r3,r0]
        0x00001278:    5058        XP      STR      r0,[r3,r1]
        0x0000127a:    b211        ..      SXTH     r1,r2
        0x0000127c:    2905        .)      CMP      r1,#5
        0x0000127e:    dbe8        ..      BLT      0x1252 ; ADC_HANDLE + 22
        0x00001280:    2000        .       MOVS     r0,#0
        0x00001282:    f001f95d    ..].    BL       GetADC ; 0x2540
        0x00001286:    4999        .I      LDR      r1,[pc,#612] ; [0x14ec] = 0x200000d4
        0x00001288:    6148        Ha      STR      r0,[r1,#0x14]
        0x0000128a:    2005        .       MOVS     r0,#5
        0x0000128c:    f001f958    ..X.    BL       GetADC ; 0x2540
        0x00001290:    4996        .I      LDR      r1,[pc,#600] ; [0x14ec] = 0x200000d4
        0x00001292:    3118        .1      ADDS     r1,r1,#0x18
        0x00001294:    6148        Ha      STR      r0,[r1,#0x14]
        0x00001296:    2006        .       MOVS     r0,#6
        0x00001298:    f001f952    ..R.    BL       GetADC ; 0x2540
        0x0000129c:    4e93        .N      LDR      r6,[pc,#588] ; [0x14ec] = 0x200000d4
        0x0000129e:    3630        06      ADDS     r6,r6,#0x30
        0x000012a0:    6170        pa      STR      r0,[r6,#0x14]
        0x000012a2:    2004        .       MOVS     r0,#4
        0x000012a4:    f001f94c    ..L.    BL       GetADC ; 0x2540
        0x000012a8:    4634        4F      MOV      r4,r6
        0x000012aa:    3418        .4      ADDS     r4,r4,#0x18
        0x000012ac:    6160        `a      STR      r0,[r4,#0x14]
        0x000012ae:    2001        .       MOVS     r0,#1
        0x000012b0:    f001f946    ..F.    BL       GetADC ; 0x2540
        0x000012b4:    6168        ha      STR      r0,[r5,#0x14]
        0x000012b6:    2007        .       MOVS     r0,#7
        0x000012b8:    f001f942    ..B.    BL       GetADC ; 0x2540
        0x000012bc:    4627        'F      MOV      r7,r4
        0x000012be:    3730        07      ADDS     r7,r7,#0x30
        0x000012c0:    6178        xa      STR      r0,[r7,#0x14]
        0x000012c2:    2101        .!      MOVS     r1,#1
        0x000012c4:    4a89        .J      LDR      r2,[pc,#548] ; [0x14ec] = 0x200000d4
        0x000012c6:    0088        ..      LSLS     r0,r1,#2
        0x000012c8:    5814        .X      LDR      r4,[r2,r0]
        0x000012ca:    6813        .h      LDR      r3,[r2,#0]
        0x000012cc:    191b        ..      ADDS     r3,r3,r4
        0x000012ce:    6013        .`      STR      r3,[r2,#0]
        0x000012d0:    3218        .2      ADDS     r2,r2,#0x18
        0x000012d2:    5814        .X      LDR      r4,[r2,r0]
        0x000012d4:    6813        .h      LDR      r3,[r2,#0]
        0x000012d6:    191b        ..      ADDS     r3,r3,r4
        0x000012d8:    6013        .`      STR      r3,[r2,#0]
        0x000012da:    5833        3X      LDR      r3,[r6,r0]
        0x000012dc:    6832        2h      LDR      r2,[r6,#0]
        0x000012de:    18d2        ..      ADDS     r2,r2,r3
        0x000012e0:    6032        2`      STR      r2,[r6,#0]
        0x000012e2:    4a82        .J      LDR      r2,[pc,#520] ; [0x14ec] = 0x200000d4
        0x000012e4:    3248        H2      ADDS     r2,r2,#0x48
        0x000012e6:    5814        .X      LDR      r4,[r2,r0]
        0x000012e8:    6813        .h      LDR      r3,[r2,#0]
        0x000012ea:    191b        ..      ADDS     r3,r3,r4
        0x000012ec:    6013        .`      STR      r3,[r2,#0]
        0x000012ee:    582b        +X      LDR      r3,[r5,r0]
        0x000012f0:    682a        *h      LDR      r2,[r5,#0]
        0x000012f2:    18d2        ..      ADDS     r2,r2,r3
        0x000012f4:    602a        *`      STR      r2,[r5,#0]
        0x000012f6:    5838        8X      LDR      r0,[r7,r0]
        0x000012f8:    683a        :h      LDR      r2,[r7,#0]
        0x000012fa:    1810        ..      ADDS     r0,r2,r0
        0x000012fc:    6038        8`      STR      r0,[r7,#0]
        0x000012fe:    1c49        I.      ADDS     r1,r1,#1
        0x00001300:    b209        ..      SXTH     r1,r1
        0x00001302:    2906        .)      CMP      r1,#6
        0x00001304:    dbde        ..      BLT      0x12c4 ; ADC_HANDLE + 136
        0x00001306:    4879        yH      LDR      r0,[pc,#484] ; [0x14ec] = 0x200000d4
        0x00001308:    2106        .!      MOVS     r1,#6
        0x0000130a:    6800        .h      LDR      r0,[r0,#0]
        0x0000130c:    f7fff834    ..4.    BL       __aeabi_uidiv ; 0x378
        0x00001310:    4976        vI      LDR      r1,[pc,#472] ; [0x14ec] = 0x200000d4
        0x00001312:    6008        .`      STR      r0,[r1,#0]
        0x00001314:    9004        ..      STR      r0,[sp,#0x10]
        0x00001316:    460c        .F      MOV      r4,r1
        0x00001318:    3418        .4      ADDS     r4,r4,#0x18
        0x0000131a:    2106        .!      MOVS     r1,#6
        0x0000131c:    6820         h      LDR      r0,[r4,#0]
        0x0000131e:    f7fff82b    ..+.    BL       __aeabi_uidiv ; 0x378
        0x00001322:    4621        !F      MOV      r1,r4
        0x00001324:    6008        .`      STR      r0,[r1,#0]
        0x00001326:    9003        ..      STR      r0,[sp,#0xc]
        0x00001328:    2106        .!      MOVS     r1,#6
        0x0000132a:    6830        0h      LDR      r0,[r6,#0]
        0x0000132c:    f7fff824    ..$.    BL       __aeabi_uidiv ; 0x378
        0x00001330:    4621        !F      MOV      r1,r4
        0x00001332:    3118        .1      ADDS     r1,r1,#0x18
        0x00001334:    6008        .`      STR      r0,[r1,#0]
        0x00001336:    9002        ..      STR      r0,[sp,#8]
        0x00001338:    4608        .F      MOV      r0,r1
        0x0000133a:    3018        .0      ADDS     r0,r0,#0x18
        0x0000133c:    6800        .h      LDR      r0,[r0,#0]
        0x0000133e:    2106        .!      MOVS     r1,#6
        0x00001340:    f7fff81a    ....    BL       __aeabi_uidiv ; 0x378
        0x00001344:    4621        !F      MOV      r1,r4
        0x00001346:    3130        01      ADDS     r1,r1,#0x30
        0x00001348:    6008        .`      STR      r0,[r1,#0]
        0x0000134a:    9001        ..      STR      r0,[sp,#4]
        0x0000134c:    2106        .!      MOVS     r1,#6
        0x0000134e:    6828        (h      LDR      r0,[r5,#0]
        0x00001350:    f7fff812    ....    BL       __aeabi_uidiv ; 0x378
        0x00001354:    4621        !F      MOV      r1,r4
        0x00001356:    3148        H1      ADDS     r1,r1,#0x48
        0x00001358:    6008        .`      STR      r0,[r1,#0]
        0x0000135a:    9000        ..      STR      r0,[sp,#0]
        0x0000135c:    4608        .F      MOV      r0,r1
        0x0000135e:    3018        .0      ADDS     r0,r0,#0x18
        0x00001360:    6800        .h      LDR      r0,[r0,#0]
        0x00001362:    2106        .!      MOVS     r1,#6
        0x00001364:    f7fff808    ....    BL       __aeabi_uidiv ; 0x378
        0x00001368:    4621        !F      MOV      r1,r4
        0x0000136a:    3160        `1      ADDS     r1,r1,#0x60
        0x0000136c:    6008        .`      STR      r0,[r1,#0]
        0x0000136e:    9804        ..      LDR      r0,[sp,#0x10]
        0x00001370:    f7fffca9    ....    BL       __aeabi_ui2d ; 0xcc6
        0x00001374:    4a5e        ^J      LDR      r2,[pc,#376] ; [0x14f0] = 0x33333333
        0x00001376:    4b5f        _K      LDR      r3,[pc,#380] ; [0x14f4] = 0x40133333
        0x00001378:    f7fffca8    ....    BL       __aeabi_dmul ; 0xccc
        0x0000137c:    2200        ."      MOVS     r2,#0
        0x0000137e:    4b5e        ^K      LDR      r3,[pc,#376] ; [0x14f8] = 0x40affe00
        0x00001380:    f7fffa4e    ..N.    BL       __aeabi_ddiv ; 0x820
        0x00001384:    2200        ."      MOVS     r2,#0
        0x00001386:    4b5d        ]K      LDR      r3,[pc,#372] ; [0x14fc] = 0x40040000
        0x00001388:    f7fffa33    ..3.    BL       __aeabi_drsub ; 0x7f2
        0x0000138c:    2200        ."      MOVS     r2,#0
        0x0000138e:    4b5c        \K      LDR      r3,[pc,#368] ; [0x1500] = 0x40240000
        0x00001390:    f7fffc9c    ....    BL       __aeabi_dmul ; 0xccc
        0x00001394:    4a5b        [J      LDR      r2,[pc,#364] ; [0x1504] = 0xe147ae14
        0x00001396:    4b5c        \K      LDR      r3,[pc,#368] ; [0x1508] = 0x3fee147a
        0x00001398:    f7fffa42    ..B.    BL       __aeabi_ddiv ; 0x820
        0x0000139c:    f7fffc46    ..F.    BL       __aeabi_d2uiz ; 0xc2c
        0x000013a0:    4f51        QO      LDR      r7,[pc,#324] ; [0x14e8] = 0x2000001c
        0x000013a2:    7038        8p      STRB     r0,[r7,#0]
        0x000013a4:    217d        }!      MOVS     r1,#0x7d
        0x000013a6:    9803        ..      LDR      r0,[sp,#0xc]
        0x000013a8:    0149        I.      LSLS     r1,r1,#5
        0x000013aa:    4288        .B      CMP      r0,r1
        0x000013ac:    d900        ..      BLS      0x13b0 ; ADC_HANDLE + 372
        0x000013ae:    6021        !`      STR      r1,[r4,#0]
        0x000013b0:    6820         h      LDR      r0,[r4,#0]
        0x000013b2:    2864        d(      CMP      r0,#0x64
        0x000013b4:    d201        ..      BCS      0x13ba ; ADC_HANDLE + 382
        0x000013b6:    2064        d       MOVS     r0,#0x64
        0x000013b8:    6020         `      STR      r0,[r4,#0]
        0x000013ba:    6820         h      LDR      r0,[r4,#0]
        0x000013bc:    1a08        ..      SUBS     r0,r1,r0
        0x000013be:    210a        .!      MOVS     r1,#0xa
        0x000013c0:    4348        HC      MULS     r0,r1,r0
        0x000013c2:    4952        RI      LDR      r1,[pc,#328] ; [0x150c] = 0xf3c
        0x000013c4:    f7feffd8    ....    BL       __aeabi_uidiv ; 0x378
        0x000013c8:    4c47        GL      LDR      r4,[pc,#284] ; [0x14e8] = 0x2000001c
        0x000013ca:    7060        `p      STRB     r0,[r4,#1]
        0x000013cc:    9801        ..      LDR      r0,[sp,#4]
        0x000013ce:    f7fffc7a    ..z.    BL       __aeabi_ui2d ; 0xcc6
        0x000013d2:    4f47        GO      LDR      r7,[pc,#284] ; [0x14f0] = 0x33333333
        0x000013d4:    4d47        GM      LDR      r5,[pc,#284] ; [0x14f4] = 0x40133333
        0x000013d6:    463a        :F      MOV      r2,r7
        0x000013d8:    462b        +F      MOV      r3,r5
        0x000013da:    f7fffc77    ..w.    BL       __aeabi_dmul ; 0xccc
        0x000013de:    4e46        FN      LDR      r6,[pc,#280] ; [0x14f8] = 0x40affe00
        0x000013e0:    2200        ."      MOVS     r2,#0
        0x000013e2:    4633        3F      MOV      r3,r6
        0x000013e4:    f7fffa1c    ....    BL       __aeabi_ddiv ; 0x820
        0x000013e8:    2200        ."      MOVS     r2,#0
        0x000013ea:    4b49        IK      LDR      r3,[pc,#292] ; [0x1510] = 0x40260000
        0x000013ec:    f7fffc6e    ..n.    BL       __aeabi_dmul ; 0xccc
        0x000013f0:    2200        ."      MOVS     r2,#0
        0x000013f2:    4b48        HK      LDR      r3,[pc,#288] ; [0x1514] = 0x3fe00000
        0x000013f4:    f7fff9e7    ....    BL       __aeabi_dadd ; 0x7c6
        0x000013f8:    f7fffc18    ....    BL       __aeabi_d2uiz ; 0xc2c
        0x000013fc:    70e0        .p      STRB     r0,[r4,#3]
        0x000013fe:    9800        ..      LDR      r0,[sp,#0]
        0x00001400:    f7fffc61    ..a.    BL       __aeabi_ui2d ; 0xcc6
        0x00001404:    463a        :F      MOV      r2,r7
        0x00001406:    462b        +F      MOV      r3,r5
        0x00001408:    f7fffc60    ..`.    BL       __aeabi_dmul ; 0xccc
        0x0000140c:    2200        ."      MOVS     r2,#0
        0x0000140e:    4633        3F      MOV      r3,r6
        0x00001410:    f7fffa06    ....    BL       __aeabi_ddiv ; 0x820
        0x00001414:    2200        ."      MOVS     r2,#0
        0x00001416:    4b39        9K      LDR      r3,[pc,#228] ; [0x14fc] = 0x40040000
        0x00001418:    f7fff9eb    ....    BL       __aeabi_drsub ; 0x7f2
        0x0000141c:    2200        ."      MOVS     r2,#0
        0x0000141e:    4b38        8K      LDR      r3,[pc,#224] ; [0x1500] = 0x40240000
        0x00001420:    f7fffc54    ..T.    BL       __aeabi_dmul ; 0xccc
        0x00001424:    4a3c        <J      LDR      r2,[pc,#240] ; [0x1518] = 0xeab367a1
        0x00001426:    4b3d        =K      LDR      r3,[pc,#244] ; [0x151c] = 0x3fd5b573
        0x00001428:    f7fff9fa    ....    BL       __aeabi_ddiv ; 0x820
        0x0000142c:    f7fffbfe    ....    BL       __aeabi_d2uiz ; 0xc2c
        0x00001430:    7120         q      STRB     r0,[r4,#4]
        0x00001432:    9802        ..      LDR      r0,[sp,#8]
        0x00001434:    f7fffc47    ..G.    BL       __aeabi_ui2d ; 0xcc6
        0x00001438:    4604        .F      MOV      r4,r0
        0x0000143a:    460d        .F      MOV      r5,r1
        0x0000143c:    2200        ."      MOVS     r2,#0
        0x0000143e:    4633        3F      MOV      r3,r6
        0x00001440:    f7fff9d7    ....    BL       __aeabi_drsub ; 0x7f2
        0x00001444:    4606        .F      MOV      r6,r0
        0x00001446:    460f        .F      MOV      r7,r1
        0x00001448:    2200        ."      MOVS     r2,#0
        0x0000144a:    4b2d        -K      LDR      r3,[pc,#180] ; [0x1500] = 0x40240000
        0x0000144c:    4620         F      MOV      r0,r4
        0x0000144e:    4629        )F      MOV      r1,r5
        0x00001450:    f7fffc3c    ..<.    BL       __aeabi_dmul ; 0xccc
        0x00001454:    4632        2F      MOV      r2,r6
        0x00001456:    463b        ;F      MOV      r3,r7
        0x00001458:    f7fff9e2    ....    BL       __aeabi_ddiv ; 0x820
        0x0000145c:    4604        .F      MOV      r4,r0
        0x0000145e:    460d        .F      MOV      r5,r1
        0x00001460:    2600        .&      MOVS     r6,#0
        0x00001462:    0077        w.      LSLS     r7,r6,#1
        0x00001464:    1c78        x.      ADDS     r0,r7,#1
        0x00001466:    0081        ..      LSLS     r1,r0,#2
        0x00001468:    482d        -H      LDR      r0,[pc,#180] ; [0x1520] = 0x35a8
        0x0000146a:    5840        @X      LDR      r0,[r0,r1]
        0x0000146c:    f7fffd74    ..t.    BL       __aeabi_f2d ; 0xf58
        0x00001470:    4622        "F      MOV      r2,r4
        0x00001472:    462b        +F      MOV      r3,r5
        0x00001474:    f002f864    ..d.    BL       __aeabi_cdrcmple ; 0x3540
        0x00001478:    d20d        ..      BCS      0x1496 ; ADC_HANDLE + 602
        0x0000147a:    1cff        ..      ADDS     r7,r7,#3
        0x0000147c:    4828        (H      LDR      r0,[pc,#160] ; [0x1520] = 0x35a8
        0x0000147e:    00b9        ..      LSLS     r1,r7,#2
        0x00001480:    5840        @X      LDR      r0,[r0,r1]
        0x00001482:    f7fffd69    ..i.    BL       __aeabi_f2d ; 0xf58
        0x00001486:    4622        "F      MOV      r2,r4
        0x00001488:    462b        +F      MOV      r3,r5
        0x0000148a:    f002f827    ..'.    BL       __aeabi_cdcmple ; 0x34dc
        0x0000148e:    d202        ..      BCS      0x1496 ; ADC_HANDLE + 602
        0x00001490:    4815        .H      LDR      r0,[pc,#84] ; [0x14e8] = 0x2000001c
        0x00001492:    7086        .p      STRB     r6,[r0,#2]
        0x00001494:    e005        ..      B        0x14a2 ; ADC_HANDLE + 614
        0x00001496:    1c76        v.      ADDS     r6,r6,#1
        0x00001498:    b236        6.      SXTH     r6,r6
        0x0000149a:    20f1        .       MOVS     r0,#0xf1
        0x0000149c:    0080        ..      LSLS     r0,r0,#2
        0x0000149e:    4286        .B      CMP      r6,r0
        0x000014a0:    d3df        ..      BCC      0x1462 ; ADC_HANDLE + 550
        0x000014a2:    4812        .H      LDR      r0,[pc,#72] ; [0x14ec] = 0x200000d4
        0x000014a4:    3078        x0      ADDS     r0,r0,#0x78
        0x000014a6:    6800        .h      LDR      r0,[r0,#0]
        0x000014a8:    f7fffc0d    ....    BL       __aeabi_ui2d ; 0xcc6
        0x000014ac:    4a10        .J      LDR      r2,[pc,#64] ; [0x14f0] = 0x33333333
        0x000014ae:    4b11        .K      LDR      r3,[pc,#68] ; [0x14f4] = 0x40133333
        0x000014b0:    f7fffc0c    ....    BL       __aeabi_dmul ; 0xccc
        0x000014b4:    2200        ."      MOVS     r2,#0
        0x000014b6:    4b10        .K      LDR      r3,[pc,#64] ; [0x14f8] = 0x40affe00
        0x000014b8:    f7fff9b2    ....    BL       __aeabi_ddiv ; 0x820
        0x000014bc:    4a19        .J      LDR      r2,[pc,#100] ; [0x1524] = 0xc49ba5e
        0x000014be:    4b1a        .K      LDR      r3,[pc,#104] ; [0x1528] = 0x3fe72b02
        0x000014c0:    f7fff997    ....    BL       __aeabi_drsub ; 0x7f2
        0x000014c4:    2200        ."      MOVS     r2,#0
        0x000014c6:    4b19        .K      LDR      r3,[pc,#100] ; [0x152c] = 0x408f4000
        0x000014c8:    f7fffc00    ....    BL       __aeabi_dmul ; 0xccc
        0x000014cc:    4a18        .J      LDR      r2,[pc,#96] ; [0x1530] = 0x9999999a
        0x000014ce:    4b19        .K      LDR      r3,[pc,#100] ; [0x1534] = 0x3ffd9999
        0x000014d0:    f7fff9a6    ....    BL       __aeabi_ddiv ; 0x820
        0x000014d4:    2200        ."      MOVS     r2,#0
        0x000014d6:    4b18        .K      LDR      r3,[pc,#96] ; [0x1538] = 0x40440000
        0x000014d8:    f7fff975    ..u.    BL       __aeabi_dadd ; 0x7c6
        0x000014dc:    f7fffba6    ....    BL       __aeabi_d2uiz ; 0xc2c
        0x000014e0:    4901        .I      LDR      r1,[pc,#4] ; [0x14e8] = 0x2000001c
        0x000014e2:    7148        Hq      STRB     r0,[r1,#5]
        0x000014e4:    b005        ..      ADD      sp,sp,#0x14
        0x000014e6:    bdf0        ..      POP      {r4-r7,pc}
    $d
        0x000014e8:    2000001c    ...     DCD    536870940
        0x000014ec:    200000d4    ...     DCD    536871124
        0x000014f0:    33333333    3333    DCD    858993459
        0x000014f4:    40133333    33.@    DCD    1075000115
        0x000014f8:    40affe00    ...@    DCD    1085275648
        0x000014fc:    40040000    ...@    DCD    1074003968
        0x00001500:    40240000    ..$@    DCD    1076101120
        0x00001504:    e147ae14    ..G.    DCD    3779571220
        0x00001508:    3fee147a    z..?    DCD    1072567418
        0x0000150c:    00000f3c    <...    DCD    3900
        0x00001510:    40260000    ..&@    DCD    1076232192
        0x00001514:    3fe00000    ...?    DCD    1071644672
        0x00001518:    eab367a1    .g..    DCD    3937626017
        0x0000151c:    3fd5b573    s..?    DCD    1070970227
        0x00001520:    000035a8    .5..    DCD    13736
        0x00001524:    0c49ba5e    ^.I.    DCD    206158430
        0x00001528:    3fe72b02    .+.?    DCD    1072114434
        0x0000152c:    408f4000    .@.@    DCD    1083129856
        0x00001530:    9999999a    ....    DCD    2576980378
        0x00001534:    3ffd9999    ...?    DCD    1073584537
        0x00001538:    40440000    ..D@    DCD    1078198272
    $t
    i.ADC_IRQHandler
    ADC_IRQHandler
        0x0000153c:    b570        p.      PUSH     {r4-r6,lr}
        0x0000153e:    4c15        .L      LDR      r4,[pc,#84] ; [0x1594] = 0x400e0000
        0x00001540:    6b20         k      LDR      r0,[r4,#0x30]
        0x00001542:    4e15        .N      LDR      r6,[pc,#84] ; [0x1598] = 0x200001b4
        0x00001544:    4d15        .M      LDR      r5,[pc,#84] ; [0x159c] = 0x2000003c
        0x00001546:    07c0        ..      LSLS     r0,r0,#31
        0x00001548:    d009        ..      BEQ      0x155e ; ADC_IRQHandler + 34
        0x0000154a:    6829        )h      LDR      r1,[r5,#0]
        0x0000154c:    2900        .)      CMP      r1,#0
        0x0000154e:    d001        ..      BEQ      0x1554 ; ADC_IRQHandler + 24
        0x00001550:    6830        0h      LDR      r0,[r6,#0]
        0x00001552:    4788        .G      BLX      r1
        0x00001554:    6b20         k      LDR      r0,[r4,#0x30]
        0x00001556:    08c0        ..      LSRS     r0,r0,#3
        0x00001558:    00c0        ..      LSLS     r0,r0,#3
        0x0000155a:    1c40        @.      ADDS     r0,r0,#1
        0x0000155c:    6320         c      STR      r0,[r4,#0x30]
        0x0000155e:    6b20         k      LDR      r0,[r4,#0x30]
        0x00001560:    0780        ..      LSLS     r0,r0,#30
        0x00001562:    d509        ..      BPL      0x1578 ; ADC_IRQHandler + 60
        0x00001564:    6869        ih      LDR      r1,[r5,#4]
        0x00001566:    2900        .)      CMP      r1,#0
        0x00001568:    d001        ..      BEQ      0x156e ; ADC_IRQHandler + 50
        0x0000156a:    6870        ph      LDR      r0,[r6,#4]
        0x0000156c:    4788        .G      BLX      r1
        0x0000156e:    6b20         k      LDR      r0,[r4,#0x30]
        0x00001570:    08c0        ..      LSRS     r0,r0,#3
        0x00001572:    00c0        ..      LSLS     r0,r0,#3
        0x00001574:    1c80        ..      ADDS     r0,r0,#2
        0x00001576:    6320         c      STR      r0,[r4,#0x30]
        0x00001578:    6b20         k      LDR      r0,[r4,#0x30]
        0x0000157a:    0740        @.      LSLS     r0,r0,#29
        0x0000157c:    d509        ..      BPL      0x1592 ; ADC_IRQHandler + 86
        0x0000157e:    68a9        .h      LDR      r1,[r5,#8]
        0x00001580:    2900        .)      CMP      r1,#0
        0x00001582:    d001        ..      BEQ      0x1588 ; ADC_IRQHandler + 76
        0x00001584:    68b0        .h      LDR      r0,[r6,#8]
        0x00001586:    4788        .G      BLX      r1
        0x00001588:    6b20         k      LDR      r0,[r4,#0x30]
        0x0000158a:    08c0        ..      LSRS     r0,r0,#3
        0x0000158c:    00c0        ..      LSLS     r0,r0,#3
        0x0000158e:    1d00        ..      ADDS     r0,r0,#4
        0x00001590:    6320         c      STR      r0,[r4,#0x30]
        0x00001592:    bd70        p.      POP      {r4-r6,pc}
    $d
        0x00001594:    400e0000    ...@    DCD    1074659328
        0x00001598:    200001b4    ...     DCD    536871348
        0x0000159c:    2000003c    <..     DCD    536870972
    $t
    i.ADC_init
    ADC_init
        0x000015a0:    b5f8        ..      PUSH     {r3-r7,lr}
        0x000015a2:    2005        .       MOVS     r0,#5
        0x000015a4:    f000f94a    ..J.    BL       DrvGPIO_InitFunction ; 0x183c
        0x000015a8:    2006        .       MOVS     r0,#6
        0x000015aa:    f000f947    ..G.    BL       DrvGPIO_InitFunction ; 0x183c
        0x000015ae:    2009        .       MOVS     r0,#9
        0x000015b0:    f000f944    ..D.    BL       DrvGPIO_InitFunction ; 0x183c
        0x000015b4:    200a        .       MOVS     r0,#0xa
        0x000015b6:    f000f941    ..A.    BL       DrvGPIO_InitFunction ; 0x183c
        0x000015ba:    200b        .       MOVS     r0,#0xb
        0x000015bc:    f000f93e    ..>.    BL       DrvGPIO_InitFunction ; 0x183c
        0x000015c0:    2301        .#      MOVS     r3,#1
        0x000015c2:    9300        ..      STR      r3,[sp,#0]
        0x000015c4:    2302        .#      MOVS     r3,#2
        0x000015c6:    22f3        ."      MOVS     r2,#0xf3
        0x000015c8:    4619        .F      MOV      r1,r3
        0x000015ca:    2000        .       MOVS     r0,#0
        0x000015cc:    f000f8c4    ....    BL       DrvADC_Open ; 0x1758
        0x000015d0:    2001        .       MOVS     r0,#1
        0x000015d2:    2105        .!      MOVS     r1,#5
        0x000015d4:    0709        ..      LSLS     r1,r1,#28
        0x000015d6:    61c8        .a      STR      r0,[r1,#0x1c]
        0x000015d8:    4819        .H      LDR      r0,[pc,#100] ; [0x1640] = 0x400e0000
        0x000015da:    6a41        Aj      LDR      r1,[r0,#0x24]
        0x000015dc:    2203        ."      MOVS     r2,#3
        0x000015de:    0212        ..      LSLS     r2,r2,#8
        0x000015e0:    4391        .C      BICS     r1,r1,r2
        0x000015e2:    31ff        .1      ADDS     r1,r1,#0xff
        0x000015e4:    31ff        .1      ADDS     r1,r1,#0xff
        0x000015e6:    3102        .1      ADDS     r1,#2
        0x000015e8:    6241        Ab      STR      r1,[r0,#0x24]
        0x000015ea:    2500        .%      MOVS     r5,#0
        0x000015ec:    4e15        .N      LDR      r6,[pc,#84] ; [0x1644] = 0x200000d4
        0x000015ee:    4637        7F      MOV      r7,r6
        0x000015f0:    3718        .7      ADDS     r7,r7,#0x18
        0x000015f2:    2000        .       MOVS     r0,#0
        0x000015f4:    f000ffa4    ....    BL       GetADC ; 0x2540
        0x000015f8:    00ac        ..      LSLS     r4,r5,#2
        0x000015fa:    5130        0Q      STR      r0,[r6,r4]
        0x000015fc:    2005        .       MOVS     r0,#5
        0x000015fe:    f000ff9f    ....    BL       GetADC ; 0x2540
        0x00001602:    5138        8Q      STR      r0,[r7,r4]
        0x00001604:    2006        .       MOVS     r0,#6
        0x00001606:    f000ff9b    ....    BL       GetADC ; 0x2540
        0x0000160a:    490e        .I      LDR      r1,[pc,#56] ; [0x1644] = 0x200000d4
        0x0000160c:    3130        01      ADDS     r1,r1,#0x30
        0x0000160e:    5108        .Q      STR      r0,[r1,r4]
        0x00001610:    2004        .       MOVS     r0,#4
        0x00001612:    f000ff95    ....    BL       GetADC ; 0x2540
        0x00001616:    490b        .I      LDR      r1,[pc,#44] ; [0x1644] = 0x200000d4
        0x00001618:    3148        H1      ADDS     r1,r1,#0x48
        0x0000161a:    5108        .Q      STR      r0,[r1,r4]
        0x0000161c:    2001        .       MOVS     r0,#1
        0x0000161e:    f000ff8f    ....    BL       GetADC ; 0x2540
        0x00001622:    4908        .I      LDR      r1,[pc,#32] ; [0x1644] = 0x200000d4
        0x00001624:    3160        `1      ADDS     r1,r1,#0x60
        0x00001626:    5108        .Q      STR      r0,[r1,r4]
        0x00001628:    2007        .       MOVS     r0,#7
        0x0000162a:    f000ff89    ....    BL       GetADC ; 0x2540
        0x0000162e:    4905        .I      LDR      r1,[pc,#20] ; [0x1644] = 0x200000d4
        0x00001630:    3178        x1      ADDS     r1,r1,#0x78
        0x00001632:    5108        .Q      STR      r0,[r1,r4]
        0x00001634:    1c6d        m.      ADDS     r5,r5,#1
        0x00001636:    b2ed        ..      UXTB     r5,r5
        0x00001638:    2d06        .-      CMP      r5,#6
        0x0000163a:    d3da        ..      BCC      0x15f2 ; ADC_init + 82
        0x0000163c:    bdf8        ..      POP      {r3-r7,pc}
    $d
        0x0000163e:    0000        ..      DCW    0
        0x00001640:    400e0000    ...@    DCD    1074659328
        0x00001644:    200000d4    ...     DCD    536871124
    $t
    i.BOD_IRQHandler
    BOD_IRQHandler
        0x00001648:    2005        .       MOVS     r0,#5
        0x0000164a:    0700        ..      LSLS     r0,r0,#28
        0x0000164c:    6981        .i      LDR      r1,[r0,#0x18]
        0x0000164e:    2210        ."      MOVS     r2,#0x10
        0x00001650:    4311        .C      ORRS     r1,r1,r2
        0x00001652:    6181        .a      STR      r1,[r0,#0x18]
        0x00001654:    4802        .H      LDR      r0,[pc,#8] ; [0x1660] = 0x20000058
        0x00001656:    6800        .h      LDR      r0,[r0,#0]
        0x00001658:    2800        .(      CMP      r0,#0
        0x0000165a:    d000        ..      BEQ      0x165e ; BOD_IRQHandler + 22
        0x0000165c:    4700        .G      BX       r0
        0x0000165e:    4770        pG      BX       lr
    $d
        0x00001660:    20000058    X..     DCD    536871000
    $t
    i.BaudRateCalculator
    BaudRateCalculator
        0x00001664:    b5f8        ..      PUSH     {r3-r7,lr}
        0x00001666:    4614        .F      MOV      r4,r2
        0x00001668:    f7fefe86    ....    BL       __aeabi_uidiv ; 0x378
        0x0000166c:    4607        .F      MOV      r7,r0
        0x0000166e:    2101        .!      MOVS     r1,#1
        0x00001670:    0700        ..      LSLS     r0,r0,#28
        0x00001672:    0749        I.      LSLS     r1,r1,#29
        0x00001674:    0f00        ..      LSRS     r0,r0,#28
        0x00001676:    104a        J.      ASRS     r2,r1,#1
        0x00001678:    2802        .(      CMP      r0,#2
        0x0000167a:    d208        ..      BCS      0x168e ; BaudRateCalculator + 42
        0x0000167c:    6820         h      LDR      r0,[r4,#0]
        0x0000167e:    4388        .C      BICS     r0,r0,r1
        0x00001680:    6020         `      STR      r0,[r4,#0]
        0x00001682:    6820         h      LDR      r0,[r4,#0]
        0x00001684:    4390        .C      BICS     r0,r0,r2
        0x00001686:    6020         `      STR      r0,[r4,#0]
        0x00001688:    093e        >.      LSRS     r6,r7,#4
        0x0000168a:    1eb6        ..      SUBS     r6,r6,#2
        0x0000168c:    e027        '.      B        0x16de ; BaudRateCalculator + 122
        0x0000168e:    6820         h      LDR      r0,[r4,#0]
        0x00001690:    4308        .C      ORRS     r0,r0,r1
        0x00001692:    6020         `      STR      r0,[r4,#0]
        0x00001694:    6820         h      LDR      r0,[r4,#0]
        0x00001696:    4310        .C      ORRS     r0,r0,r2
        0x00001698:    6020         `      STR      r0,[r4,#0]
        0x0000169a:    1ebe        ..      SUBS     r6,r7,#2
        0x0000169c:    4813        .H      LDR      r0,[pc,#76] ; [0x16ec] = 0xffff
        0x0000169e:    4286        .B      CMP      r6,r0
        0x000016a0:    dd1d        ..      BLE      0x16de ; BaudRateCalculator + 122
        0x000016a2:    6820         h      LDR      r0,[r4,#0]
        0x000016a4:    4308        .C      ORRS     r0,r0,r1
        0x000016a6:    6020         `      STR      r0,[r4,#0]
        0x000016a8:    6820         h      LDR      r0,[r4,#0]
        0x000016aa:    4390        .C      BICS     r0,r0,r2
        0x000016ac:    6020         `      STR      r0,[r4,#0]
        0x000016ae:    2508        .%      MOVS     r5,#8
        0x000016b0:    4638        8F      MOV      r0,r7
        0x000016b2:    1c69        i.      ADDS     r1,r5,#1
        0x000016b4:    f7fefe60    ..`.    BL       __aeabi_uidiv ; 0x378
        0x000016b8:    2903        .)      CMP      r1,#3
        0x000016ba:    d20d        ..      BCS      0x16d8 ; BaudRateCalculator + 116
        0x000016bc:    6820         h      LDR      r0,[r4,#0]
        0x000016be:    210f        .!      MOVS     r1,#0xf
        0x000016c0:    0609        ..      LSLS     r1,r1,#24
        0x000016c2:    4388        .C      BICS     r0,r0,r1
        0x000016c4:    0729        ).      LSLS     r1,r5,#28
        0x000016c6:    0909        ..      LSRS     r1,r1,#4
        0x000016c8:    4308        .C      ORRS     r0,r0,r1
        0x000016ca:    6020         `      STR      r0,[r4,#0]
        0x000016cc:    4638        8F      MOV      r0,r7
        0x000016ce:    1c69        i.      ADDS     r1,r5,#1
        0x000016d0:    f7fefe52    ..R.    BL       __aeabi_uidiv ; 0x378
        0x000016d4:    1e86        ..      SUBS     r6,r0,#2
        0x000016d6:    e002        ..      B        0x16de ; BaudRateCalculator + 122
        0x000016d8:    1c6d        m.      ADDS     r5,r5,#1
        0x000016da:    2d10        .-      CMP      r5,#0x10
        0x000016dc:    dbe8        ..      BLT      0x16b0 ; BaudRateCalculator + 76
        0x000016de:    6820         h      LDR      r0,[r4,#0]
        0x000016e0:    b2b1        ..      UXTH     r1,r6
        0x000016e2:    0c00        ..      LSRS     r0,r0,#16
        0x000016e4:    0400        ..      LSLS     r0,r0,#16
        0x000016e6:    4308        .C      ORRS     r0,r0,r1
        0x000016e8:    6020         `      STR      r0,[r4,#0]
        0x000016ea:    bdf8        ..      POP      {r3-r7,pc}
    $d
        0x000016ec:    0000ffff    ....    DCD    65535
    $t
    i.CalTimerInitValue
    CalTimerInitValue
        0x000016f0:    b5f3        ..      PUSH     {r0,r1,r4-r7,lr}
        0x000016f2:    b081        ..      SUB      sp,sp,#4
        0x000016f4:    460d        .F      MOV      r5,r1
        0x000016f6:    2700        .'      MOVS     r7,#0
        0x000016f8:    9801        ..      LDR      r0,[sp,#4]
        0x000016fa:    43ff        .C      MVNS     r7,r7
        0x000016fc:    2802        .(      CMP      r0,#2
        0x000016fe:    d30f        ..      BCC      0x1720 ; CalTimerInitValue + 48
        0x00001700:    2d00        .-      CMP      r5,#0
        0x00001702:    d00d        ..      BEQ      0x1720 ; CalTimerInitValue + 48
        0x00001704:    2401        .$      MOVS     r4,#1
        0x00001706:    4e0a        .N      LDR      r6,[pc,#40] ; [0x1730] = 0xfffffe
        0x00001708:    4629        )F      MOV      r1,r5
        0x0000170a:    4361        aC      MULS     r1,r4,r1
        0x0000170c:    9801        ..      LDR      r0,[sp,#4]
        0x0000170e:    f7fefe33    ..3.    BL       __aeabi_uidiv ; 0x378
        0x00001712:    1e81        ..      SUBS     r1,r0,#2
        0x00001714:    42b1        .B      CMP      r1,r6
        0x00001716:    d205        ..      BCS      0x1724 ; CalTimerInitValue + 52
        0x00001718:    1e64        d.      SUBS     r4,r4,#1
        0x0000171a:    0621        !.      LSLS     r1,r4,#24
        0x0000171c:    4308        .C      ORRS     r0,r0,r1
        0x0000171e:    bdfe        ..      POP      {r1-r7,pc}
        0x00001720:    4638        8F      MOV      r0,r7
        0x00001722:    bdfe        ..      POP      {r1-r7,pc}
        0x00001724:    1c64        d.      ADDS     r4,r4,#1
        0x00001726:    2cff        .,      CMP      r4,#0xff
        0x00001728:    d9ee        ..      BLS      0x1708 ; CalTimerInitValue + 24
        0x0000172a:    4638        8F      MOV      r0,r7
        0x0000172c:    bdfe        ..      POP      {r1-r7,pc}
    $d
        0x0000172e:    0000        ..      DCW    0
        0x00001730:    00fffffe    ....    DCD    16777214
    $t
    i.DrvADC_GetConversionData
    DrvADC_GetConversionData
        0x00001734:    4902        .I      LDR      r1,[pc,#8] ; [0x1740] = 0x400e0000
        0x00001736:    0080        ..      LSLS     r0,r0,#2
        0x00001738:    1840        @.      ADDS     r0,r0,r1
        0x0000173a:    6800        .h      LDR      r0,[r0,#0]
        0x0000173c:    b280        ..      UXTH     r0,r0
        0x0000173e:    4770        pG      BX       lr
    $d
        0x00001740:    400e0000    ...@    DCD    1074659328
    $t
    i.DrvADC_IsConversionDone
    DrvADC_IsConversionDone
        0x00001744:    4803        .H      LDR      r0,[pc,#12] ; [0x1754] = 0x400e0000
        0x00001746:    6b00        .k      LDR      r0,[r0,#0x30]
        0x00001748:    07c0        ..      LSLS     r0,r0,#31
        0x0000174a:    d001        ..      BEQ      0x1750 ; DrvADC_IsConversionDone + 12
        0x0000174c:    2001        .       MOVS     r0,#1
        0x0000174e:    4770        pG      BX       lr
        0x00001750:    2000        .       MOVS     r0,#0
        0x00001752:    4770        pG      BX       lr
    $d
        0x00001754:    400e0000    ...@    DCD    1074659328
    $t
    i.DrvADC_Open
    DrvADC_Open
        0x00001758:    b5ff        ..      PUSH     {r0-r7,lr}
        0x0000175a:    2405        .$      MOVS     r4,#5
        0x0000175c:    0724        $.      LSLS     r4,r4,#28
        0x0000175e:    68e5        .h      LDR      r5,[r4,#0xc]
        0x00001760:    2601        .&      MOVS     r6,#1
        0x00001762:    0736        6.      LSLS     r6,r6,#28
        0x00001764:    4335        5C      ORRS     r5,r5,r6
        0x00001766:    60e5        .`      STR      r5,[r4,#0xc]
        0x00001768:    68e5        .h      LDR      r5,[r4,#0xc]
        0x0000176a:    43b5        .C      BICS     r5,r5,r6
        0x0000176c:    60e5        .`      STR      r5,[r4,#0xc]
        0x0000176e:    4c1f        .L      LDR      r4,[pc,#124] ; [0x17ec] = 0x50000200
        0x00001770:    6967        gi      LDR      r7,[r4,#0x14]
        0x00001772:    250c        .%      MOVS     r5,#0xc
        0x00001774:    079b        ..      LSLS     r3,r3,#30
        0x00001776:    43af        .C      BICS     r7,r7,r5
        0x00001778:    0f1b        ..      LSRS     r3,r3,#28
        0x0000177a:    431f        .C      ORRS     r7,r7,r3
        0x0000177c:    6167        ga      STR      r7,[r4,#0x14]
        0x0000177e:    69a3        .i      LDR      r3,[r4,#0x18]
        0x00001780:    27ff        .'      MOVS     r7,#0xff
        0x00001782:    043f        ?.      LSLS     r7,r7,#16
        0x00001784:    43bb        .C      BICS     r3,r3,r7
        0x00001786:    9f09        ..      LDR      r7,[sp,#0x24]
        0x00001788:    043f        ?.      LSLS     r7,r7,#16
        0x0000178a:    433b        ;C      ORRS     r3,r3,r7
        0x0000178c:    61a3        .a      STR      r3,[r4,#0x18]
        0x0000178e:    68a3        .h      LDR      r3,[r4,#8]
        0x00001790:    4333        3C      ORRS     r3,r3,r6
        0x00001792:    60a3        .`      STR      r3,[r4,#8]
        0x00001794:    4b16        .K      LDR      r3,[pc,#88] ; [0x17f0] = 0x400e0000
        0x00001796:    6a1c        .j      LDR      r4,[r3,#0x20]
        0x00001798:    2601        .&      MOVS     r6,#1
        0x0000179a:    4334        4C      ORRS     r4,r4,r6
        0x0000179c:    621c        .b      STR      r4,[r3,#0x20]
        0x0000179e:    151c        ..      ASRS     r4,r3,#20
        0x000017a0:    2800        .(      CMP      r0,#0
        0x000017a2:    d011        ..      BEQ      0x17c8 ; DrvADC_Open + 112
        0x000017a4:    6a18        .j      LDR      r0,[r3,#0x20]
        0x000017a6:    4320         C      ORRS     r0,r0,r4
        0x000017a8:    6218        .b      STR      r0,[r3,#0x20]
        0x000017aa:    2900        .)      CMP      r1,#0
        0x000017ac:    d010        ..      BEQ      0x17d0 ; DrvADC_Open + 120
        0x000017ae:    2901        .)      CMP      r1,#1
        0x000017b0:    d012        ..      BEQ      0x17d8 ; DrvADC_Open + 128
        0x000017b2:    2902        .)      CMP      r1,#2
        0x000017b4:    d015        ..      BEQ      0x17e2 ; DrvADC_Open + 138
        0x000017b6:    6a18        .j      LDR      r0,[r3,#0x20]
        0x000017b8:    4328        (C      ORRS     r0,r0,r5
        0x000017ba:    6218        .b      STR      r0,[r3,#0x20]
        0x000017bc:    6a58        Xj      LDR      r0,[r3,#0x24]
        0x000017be:    0a00        ..      LSRS     r0,r0,#8
        0x000017c0:    0200        ..      LSLS     r0,r0,#8
        0x000017c2:    4310        .C      ORRS     r0,r0,r2
        0x000017c4:    6258        Xb      STR      r0,[r3,#0x24]
        0x000017c6:    bdff        ..      POP      {r0-r7,pc}
        0x000017c8:    6a18        .j      LDR      r0,[r3,#0x20]
        0x000017ca:    43a0        .C      BICS     r0,r0,r4
        0x000017cc:    6218        .b      STR      r0,[r3,#0x20]
        0x000017ce:    e7ec        ..      B        0x17aa ; DrvADC_Open + 82
        0x000017d0:    6a18        .j      LDR      r0,[r3,#0x20]
        0x000017d2:    43a8        .C      BICS     r0,r0,r5
        0x000017d4:    6218        .b      STR      r0,[r3,#0x20]
        0x000017d6:    e7f1        ..      B        0x17bc ; DrvADC_Open + 100
        0x000017d8:    6a18        .j      LDR      r0,[r3,#0x20]
        0x000017da:    43a8        .C      BICS     r0,r0,r5
        0x000017dc:    1d00        ..      ADDS     r0,r0,#4
        0x000017de:    6218        .b      STR      r0,[r3,#0x20]
        0x000017e0:    e7ec        ..      B        0x17bc ; DrvADC_Open + 100
        0x000017e2:    6a18        .j      LDR      r0,[r3,#0x20]
        0x000017e4:    43a8        .C      BICS     r0,r0,r5
        0x000017e6:    3008        .0      ADDS     r0,r0,#8
        0x000017e8:    6218        .b      STR      r0,[r3,#0x20]
        0x000017ea:    e7e7        ..      B        0x17bc ; DrvADC_Open + 100
    $d
        0x000017ec:    50000200    ...P    DCD    1342177792
        0x000017f0:    400e0000    ...@    DCD    1074659328
    $t
    i.DrvADC_StartConvert
    DrvADC_StartConvert
        0x000017f4:    4805        .H      LDR      r0,[pc,#20] ; [0x180c] = 0x400e0000
        0x000017f6:    6b01        .k      LDR      r1,[r0,#0x30]
        0x000017f8:    08c9        ..      LSRS     r1,r1,#3
        0x000017fa:    00c9        ..      LSLS     r1,r1,#3
        0x000017fc:    1c49        I.      ADDS     r1,r1,#1
        0x000017fe:    6301        .c      STR      r1,[r0,#0x30]
        0x00001800:    6a01        .j      LDR      r1,[r0,#0x20]
        0x00001802:    2201        ."      MOVS     r2,#1
        0x00001804:    02d2        ..      LSLS     r2,r2,#11
        0x00001806:    4311        .C      ORRS     r1,r1,r2
        0x00001808:    6201        .b      STR      r1,[r0,#0x20]
        0x0000180a:    4770        pG      BX       lr
    $d
        0x0000180c:    400e0000    ...@    DCD    1074659328
    $t
    i.DrvGPIO_ClrBit
    DrvGPIO_ClrBit
        0x00001810:    0140        @.      LSLS     r0,r0,#5
        0x00001812:    0089        ..      LSLS     r1,r1,#2
        0x00001814:    1840        @.      ADDS     r0,r0,r1
        0x00001816:    4903        .I      LDR      r1,[pc,#12] ; [0x1824] = 0x50004200
        0x00001818:    2200        ."      MOVS     r2,#0
        0x0000181a:    1840        @.      ADDS     r0,r0,r1
        0x0000181c:    6002        .`      STR      r2,[r0,#0]
        0x0000181e:    2000        .       MOVS     r0,#0
        0x00001820:    4770        pG      BX       lr
    $d
        0x00001822:    0000        ..      DCW    0
        0x00001824:    50004200    .B.P    DCD    1342194176
    $t
    i.DrvGPIO_GetBit
    DrvGPIO_GetBit
        0x00001828:    0140        @.      LSLS     r0,r0,#5
        0x0000182a:    0089        ..      LSLS     r1,r1,#2
        0x0000182c:    1840        @.      ADDS     r0,r0,r1
        0x0000182e:    4902        .I      LDR      r1,[pc,#8] ; [0x1838] = 0x50004200
        0x00001830:    1840        @.      ADDS     r0,r0,r1
        0x00001832:    6800        .h      LDR      r0,[r0,#0]
        0x00001834:    4770        pG      BX       lr
    $d
        0x00001836:    0000        ..      DCW    0
        0x00001838:    50004200    .B.P    DCD    1342194176
    $t
    i.DrvGPIO_InitFunction
    DrvGPIO_InitFunction
        0x0000183c:    b5f0        ..      PUSH     {r4-r7,lr}
        0x0000183e:    4a6a        jJ      LDR      r2,[pc,#424] ; [0x19e8] = 0x50000040
        0x00001840:    2105        .!      MOVS     r1,#5
        0x00001842:    4603        .F      MOV      r3,r0
        0x00001844:    2403        .$      MOVS     r4,#3
        0x00001846:    0155        U.      LSLS     r5,r2,#5
        0x00001848:    2608        .&      MOVS     r6,#8
        0x0000184a:    270c        .'      MOVS     r7,#0xc
        0x0000184c:    0709        ..      LSLS     r1,r1,#28
        0x0000184e:    f001fd77    ..w.    BL       __ARM_common_switch8 ; 0x3340
    $d
        0x00001852:    101e        ..      DCW    4126
        0x00001854:    2f271f17    ..'/    DCD    791093015
        0x00001858:    37373737    7777    DCD    926365495
        0x0000185c:    37373737    7777    DCD    926365495
        0x00001860:    574f4a42    BJOW    DCD    1464814146
        0x00001864:    7a6f675f    _goz    DCD    2054121311
        0x00001868:    83838383    ....    DCD    2206434179
        0x0000186c:    a3a89090    ....    DCD    2745733264
        0x00001870:    c8bf        ..      DCW    51391
    $t
        0x00001872:    2000        .       MOVS     r0,#0
        0x00001874:    6308        .c      STR      r0,[r1,#0x30]
        0x00001876:    6348        Hc      STR      r0,[r1,#0x34]
        0x00001878:    6388        .c      STR      r0,[r1,#0x38]
        0x0000187a:    63c8        .c      STR      r0,[r1,#0x3c]
        0x0000187c:    6010        .`      STR      r0,[r2,#0]
        0x0000187e:    e0ae        ..      B        0x19de ; DrvGPIO_InitFunction + 418
        0x00001880:    6bc8        .k      LDR      r0,[r1,#0x3c]
        0x00001882:    2201        ."      MOVS     r2,#1
        0x00001884:    0392        ..      LSLS     r2,r2,#14
        0x00001886:    4310        .C      ORRS     r0,r0,r2
        0x00001888:    2240        @"      MOVS     r2,#0x40
        0x0000188a:    4390        .C      BICS     r0,r0,r2
        0x0000188c:    63c8        .c      STR      r0,[r1,#0x3c]
        0x0000188e:    e0a6        ..      B        0x19de ; DrvGPIO_InitFunction + 418
        0x00001890:    6bc8        .k      LDR      r0,[r1,#0x3c]
        0x00001892:    2203        ."      MOVS     r2,#3
        0x00001894:    0312        ..      LSLS     r2,r2,#12
        0x00001896:    4310        .C      ORRS     r0,r0,r2
        0x00001898:    2230        0"      MOVS     r2,#0x30
        0x0000189a:    4390        .C      BICS     r0,r0,r2
        0x0000189c:    63c8        .c      STR      r0,[r1,#0x3c]
        0x0000189e:    e09e        ..      B        0x19de ; DrvGPIO_InitFunction + 418
        0x000018a0:    6b48        Hk      LDR      r0,[r1,#0x34]
        0x000018a2:    220f        ."      MOVS     r2,#0xf
        0x000018a4:    0312        ..      LSLS     r2,r2,#12
        0x000018a6:    4310        .C      ORRS     r0,r0,r2
        0x000018a8:    22f0        ."      MOVS     r2,#0xf0
        0x000018aa:    4390        .C      BICS     r0,r0,r2
        0x000018ac:    6348        Hc      STR      r0,[r1,#0x34]
        0x000018ae:    e096        ..      B        0x19de ; DrvGPIO_InitFunction + 418
        0x000018b0:    6b08        .k      LDR      r0,[r1,#0x30]
        0x000018b2:    220f        ."      MOVS     r2,#0xf
        0x000018b4:    0312        ..      LSLS     r2,r2,#12
        0x000018b6:    4310        .C      ORRS     r0,r0,r2
        0x000018b8:    22f0        ."      MOVS     r2,#0xf0
        0x000018ba:    4390        .C      BICS     r0,r0,r2
        0x000018bc:    6308        .c      STR      r0,[r1,#0x30]
        0x000018be:    e08e        ..      B        0x19de ; DrvGPIO_InitFunction + 418
        0x000018c0:    6b4b        Kk      LDR      r3,[r1,#0x34]
        0x000018c2:    2201        ."      MOVS     r2,#1
        0x000018c4:    1cc4        ..      ADDS     r4,r0,#3
        0x000018c6:    4615        .F      MOV      r5,r2
        0x000018c8:    40a5        .@      LSLS     r5,r5,r4
        0x000018ca:    1f40        @.      SUBS     r0,r0,#5
        0x000018cc:    43ab        .C      BICS     r3,r3,r5
        0x000018ce:    4082        .@      LSLS     r2,r2,r0
        0x000018d0:    4313        .C      ORRS     r3,r3,r2
        0x000018d2:    634b        Kc      STR      r3,[r1,#0x34]
        0x000018d4:    e083        ..      B        0x19de ; DrvGPIO_InitFunction + 418
        0x000018d6:    6bc8        .k      LDR      r0,[r1,#0x3c]
        0x000018d8:    2201        ."      MOVS     r2,#1
        0x000018da:    0292        ..      LSLS     r2,r2,#10
        0x000018dc:    4390        .C      BICS     r0,r0,r2
        0x000018de:    2204        ."      MOVS     r2,#4
        0x000018e0:    4310        .C      ORRS     r0,r0,r2
        0x000018e2:    63c8        .c      STR      r0,[r1,#0x3c]
        0x000018e4:    e07b        {.      B        0x19de ; DrvGPIO_InitFunction + 418
        0x000018e6:    6bc8        .k      LDR      r0,[r1,#0x3c]
        0x000018e8:    43a8        .C      BICS     r0,r0,r5
        0x000018ea:    4330        0C      ORRS     r0,r0,r6
        0x000018ec:    63c8        .c      STR      r0,[r1,#0x3c]
        0x000018ee:    e076        v.      B        0x19de ; DrvGPIO_InitFunction + 418
        0x000018f0:    6bc8        .k      LDR      r0,[r1,#0x3c]
        0x000018f2:    2201        ."      MOVS     r2,#1
        0x000018f4:    0312        ..      LSLS     r2,r2,#12
        0x000018f6:    4390        .C      BICS     r0,r0,r2
        0x000018f8:    2210        ."      MOVS     r2,#0x10
        0x000018fa:    4310        .C      ORRS     r0,r0,r2
        0x000018fc:    63c8        .c      STR      r0,[r1,#0x3c]
        0x000018fe:    e06e        n.      B        0x19de ; DrvGPIO_InitFunction + 418
        0x00001900:    6bc8        .k      LDR      r0,[r1,#0x3c]
        0x00001902:    2201        ."      MOVS     r2,#1
        0x00001904:    0352        R.      LSLS     r2,r2,#13
        0x00001906:    4390        .C      BICS     r0,r0,r2
        0x00001908:    2220         "      MOVS     r2,#0x20
        0x0000190a:    4310        .C      ORRS     r0,r0,r2
        0x0000190c:    63c8        .c      STR      r0,[r1,#0x3c]
        0x0000190e:    e066        f.      B        0x19de ; DrvGPIO_InitFunction + 418
        0x00001910:    6b48        Hk      LDR      r0,[r1,#0x34]
        0x00001912:    22ff        ."      MOVS     r2,#0xff
        0x00001914:    3201        .2      ADDS     r2,#1
        0x00001916:    4310        .C      ORRS     r0,r0,r2
        0x00001918:    0840        @.      LSRS     r0,r0,#1
        0x0000191a:    0040        @.      LSLS     r0,r0,#1
        0x0000191c:    6348        Hc      STR      r0,[r1,#0x34]
        0x0000191e:    e05e        ^.      B        0x19de ; DrvGPIO_InitFunction + 418
        0x00001920:    6b48        Hk      LDR      r0,[r1,#0x34]
        0x00001922:    2201        ."      MOVS     r2,#1
        0x00001924:    0252        R.      LSLS     r2,r2,#9
        0x00001926:    4310        .C      ORRS     r0,r0,r2
        0x00001928:    2202        ."      MOVS     r2,#2
        0x0000192a:    4390        .C      BICS     r0,r0,r2
        0x0000192c:    6348        Hc      STR      r0,[r1,#0x34]
        0x0000192e:    e056        V.      B        0x19de ; DrvGPIO_InitFunction + 418
        0x00001930:    6bc8        .k      LDR      r0,[r1,#0x3c]
        0x00001932:    2203        ."      MOVS     r2,#3
        0x00001934:    0212        ..      LSLS     r2,r2,#8
        0x00001936:    4390        .C      BICS     r0,r0,r2
        0x00001938:    4320         C      ORRS     r0,r0,r4
        0x0000193a:    63c8        .c      STR      r0,[r1,#0x3c]
        0x0000193c:    6b08        .k      LDR      r0,[r1,#0x30]
        0x0000193e:    4328        (C      ORRS     r0,r0,r5
        0x00001940:    43b8        .C      BICS     r0,r0,r7
        0x00001942:    6308        .c      STR      r0,[r1,#0x30]
        0x00001944:    e04b        K.      B        0x19de ; DrvGPIO_InitFunction + 418
        0x00001946:    6b4a        Jk      LDR      r2,[r1,#0x34]
        0x00001948:    2003        .       MOVS     r0,#3
        0x0000194a:    0280        ..      LSLS     r0,r0,#10
        0x0000194c:    4302        .C      ORRS     r2,r2,r0
        0x0000194e:    43ba        .C      BICS     r2,r2,r7
        0x00001950:    634a        Jc      STR      r2,[r1,#0x34]
        0x00001952:    6b08        .k      LDR      r0,[r1,#0x30]
        0x00001954:    6308        .c      STR      r0,[r1,#0x30]
        0x00001956:    e042        B.      B        0x19de ; DrvGPIO_InitFunction + 418
        0x00001958:    6b8a        .k      LDR      r2,[r1,#0x38]
        0x0000195a:    3815        .8      SUBS     r0,r0,#0x15
        0x0000195c:    0040        @.      LSLS     r0,r0,#1
        0x0000195e:    4603        .F      MOV      r3,r0
        0x00001960:    3308        .3      ADDS     r3,r3,#8
        0x00001962:    4625        %F      MOV      r5,r4
        0x00001964:    409c        .@      LSLS     r4,r4,r3
        0x00001966:    4322        "C      ORRS     r2,r2,r4
        0x00001968:    462c        ,F      MOV      r4,r5
        0x0000196a:    4084        .@      LSLS     r4,r4,r0
        0x0000196c:    43a2        .C      BICS     r2,r2,r4
        0x0000196e:    638a        .c      STR      r2,[r1,#0x38]
        0x00001970:    e035        5.      B        0x19de ; DrvGPIO_InitFunction + 418
        0x00001972:    2819        .(      CMP      r0,#0x19
        0x00001974:    d002        ..      BEQ      0x197c ; DrvGPIO_InitFunction + 320
        0x00001976:    281a        .(      CMP      r0,#0x1a
        0x00001978:    d007        ..      BEQ      0x198a ; DrvGPIO_InitFunction + 334
        0x0000197a:    e030        0.      B        0x19de ; DrvGPIO_InitFunction + 418
        0x0000197c:    6810        .h      LDR      r0,[r2,#0]
        0x0000197e:    2103        .!      MOVS     r1,#3
        0x00001980:    0209        ..      LSLS     r1,r1,#8
        0x00001982:    4388        .C      BICS     r0,r0,r1
        0x00001984:    4320         C      ORRS     r0,r0,r4
        0x00001986:    6010        .`      STR      r0,[r2,#0]
        0x00001988:    e029        ).      B        0x19de ; DrvGPIO_InitFunction + 418
        0x0000198a:    6810        .h      LDR      r0,[r2,#0]
        0x0000198c:    2103        .!      MOVS     r1,#3
        0x0000198e:    0289        ..      LSLS     r1,r1,#10
        0x00001990:    4388        .C      BICS     r0,r0,r1
        0x00001992:    4338        8C      ORRS     r0,r0,r7
        0x00001994:    6010        .`      STR      r0,[r2,#0]
        0x00001996:    e022        ".      B        0x19de ; DrvGPIO_InitFunction + 418
        0x00001998:    6b88        .k      LDR      r0,[r1,#0x38]
        0x0000199a:    0c00        ..      LSRS     r0,r0,#16
        0x0000199c:    0400        ..      LSLS     r0,r0,#16
        0x0000199e:    30ff        .0      ADDS     r0,r0,#0xff
        0x000019a0:    6388        .c      STR      r0,[r1,#0x38]
        0x000019a2:    6b08        .k      LDR      r0,[r1,#0x30]
        0x000019a4:    0c00        ..      LSRS     r0,r0,#16
        0x000019a6:    0400        ..      LSLS     r0,r0,#16
        0x000019a8:    30ff        .0      ADDS     r0,r0,#0xff
        0x000019aa:    6308        .c      STR      r0,[r1,#0x30]
        0x000019ac:    6bc8        .k      LDR      r0,[r1,#0x3c]
        0x000019ae:    4328        (C      ORRS     r0,r0,r5
        0x000019b0:    43b0        .C      BICS     r0,r0,r6
        0x000019b2:    63c8        .c      STR      r0,[r1,#0x3c]
        0x000019b4:    6bc8        .k      LDR      r0,[r1,#0x3c]
        0x000019b6:    2303        .#      MOVS     r3,#3
        0x000019b8:    039b        ..      LSLS     r3,r3,#14
        0x000019ba:    4398        .C      BICS     r0,r0,r3
        0x000019bc:    23c0        .#      MOVS     r3,#0xc0
        0x000019be:    4318        .C      ORRS     r0,r0,r3
        0x000019c0:    63c8        .c      STR      r0,[r1,#0x3c]
        0x000019c2:    6810        .h      LDR      r0,[r2,#0]
        0x000019c4:    0199        ..      LSLS     r1,r3,#6
        0x000019c6:    4388        .C      BICS     r0,r0,r1
        0x000019c8:    2130        0!      MOVS     r1,#0x30
        0x000019ca:    4308        .C      ORRS     r0,r0,r1
        0x000019cc:    6010        .`      STR      r0,[r2,#0]
        0x000019ce:    e006        ..      B        0x19de ; DrvGPIO_InitFunction + 418
        0x000019d0:    6810        .h      LDR      r0,[r2,#0]
        0x000019d2:    2103        .!      MOVS     r1,#3
        0x000019d4:    0389        ..      LSLS     r1,r1,#14
        0x000019d6:    4388        .C      BICS     r0,r0,r1
        0x000019d8:    21c0        .!      MOVS     r1,#0xc0
        0x000019da:    4308        .C      ORRS     r0,r0,r1
        0x000019dc:    6010        .`      STR      r0,[r2,#0]
        0x000019de:    2000        .       MOVS     r0,#0
        0x000019e0:    bdf0        ..      POP      {r4-r7,pc}
        0x000019e2:    4802        .H      LDR      r0,[pc,#8] ; [0x19ec] = 0xffff8901
        0x000019e4:    bdf0        ..      POP      {r4-r7,pc}
    $d
        0x000019e6:    0000        ..      DCW    0
        0x000019e8:    50000040    @..P    DCD    1342177344
        0x000019ec:    ffff8901    ....    DCD    4294936833
    $t
    i.DrvGPIO_Open
    DrvGPIO_Open
        0x000019f0:    b510        ..      PUSH     {r4,lr}
        0x000019f2:    4b12        .K      LDR      r3,[pc,#72] ; [0x1a3c] = 0x50004000
        0x000019f4:    0180        ..      LSLS     r0,r0,#6
        0x000019f6:    18c0        ..      ADDS     r0,r0,r3
        0x000019f8:    2303        .#      MOVS     r3,#3
        0x000019fa:    0049        I.      LSLS     r1,r1,#1
        0x000019fc:    408b        .@      LSLS     r3,r3,r1
        0x000019fe:    2a00        .*      CMP      r2,#0
        0x00001a00:    d009        ..      BEQ      0x1a16 ; DrvGPIO_Open + 38
        0x00001a02:    2a01        .*      CMP      r2,#1
        0x00001a04:    d007        ..      BEQ      0x1a16 ; DrvGPIO_Open + 38
        0x00001a06:    2a02        .*      CMP      r2,#2
        0x00001a08:    d005        ..      BEQ      0x1a16 ; DrvGPIO_Open + 38
        0x00001a0a:    2a03        .*      CMP      r2,#3
        0x00001a0c:    d102        ..      BNE      0x1a14 ; DrvGPIO_Open + 36
        0x00001a0e:    6801        .h      LDR      r1,[r0,#0]
        0x00001a10:    4319        .C      ORRS     r1,r1,r3
        0x00001a12:    6001        .`      STR      r1,[r0,#0]
        0x00001a14:    bd10        ..      POP      {r4,pc}
        0x00001a16:    6804        .h      LDR      r4,[r0,#0]
        0x00001a18:    439c        .C      BICS     r4,r4,r3
        0x00001a1a:    6004        .`      STR      r4,[r0,#0]
        0x00001a1c:    2a01        .*      CMP      r2,#1
        0x00001a1e:    d007        ..      BEQ      0x1a30 ; DrvGPIO_Open + 64
        0x00001a20:    2a02        .*      CMP      r2,#2
        0x00001a22:    d1f7        ..      BNE      0x1a14 ; DrvGPIO_Open + 36
        0x00001a24:    6802        .h      LDR      r2,[r0,#0]
        0x00001a26:    2302        .#      MOVS     r3,#2
        0x00001a28:    408b        .@      LSLS     r3,r3,r1
        0x00001a2a:    431a        .C      ORRS     r2,r2,r3
        0x00001a2c:    6002        .`      STR      r2,[r0,#0]
        0x00001a2e:    bd10        ..      POP      {r4,pc}
        0x00001a30:    6802        .h      LDR      r2,[r0,#0]
        0x00001a32:    2301        .#      MOVS     r3,#1
        0x00001a34:    408b        .@      LSLS     r3,r3,r1
        0x00001a36:    431a        .C      ORRS     r2,r2,r3
        0x00001a38:    6002        .`      STR      r2,[r0,#0]
        0x00001a3a:    bd10        ..      POP      {r4,pc}
    $d
        0x00001a3c:    50004000    .@.P    DCD    1342193664
    $t
    i.DrvGPIO_SetBit
    DrvGPIO_SetBit
        0x00001a40:    0140        @.      LSLS     r0,r0,#5
        0x00001a42:    0089        ..      LSLS     r1,r1,#2
        0x00001a44:    1840        @.      ADDS     r0,r0,r1
        0x00001a46:    4903        .I      LDR      r1,[pc,#12] ; [0x1a54] = 0x50004200
        0x00001a48:    2201        ."      MOVS     r2,#1
        0x00001a4a:    1840        @.      ADDS     r0,r0,r1
        0x00001a4c:    6002        .`      STR      r2,[r0,#0]
        0x00001a4e:    2000        .       MOVS     r0,#0
        0x00001a50:    4770        pG      BX       lr
    $d
        0x00001a52:    0000        ..      DCW    0
        0x00001a54:    50004200    .B.P    DCD    1342194176
    $t
    i.DrvI2C_Close
    DrvI2C_Close
        0x00001a58:    4909        .I      LDR      r1,[pc,#36] ; [0x1a80] = 0x40020000
        0x00001a5a:    6808        .h      LDR      r0,[r1,#0]
        0x00001a5c:    2240        @"      MOVS     r2,#0x40
        0x00001a5e:    4390        .C      BICS     r0,r0,r2
        0x00001a60:    6008        .`      STR      r0,[r1,#0]
        0x00001a62:    2005        .       MOVS     r0,#5
        0x00001a64:    0700        ..      LSLS     r0,r0,#28
        0x00001a66:    68c2        .h      LDR      r2,[r0,#0xc]
        0x00001a68:    1589        ..      ASRS     r1,r1,#22
        0x00001a6a:    430a        .C      ORRS     r2,r2,r1
        0x00001a6c:    60c2        .`      STR      r2,[r0,#0xc]
        0x00001a6e:    68c2        .h      LDR      r2,[r0,#0xc]
        0x00001a70:    438a        .C      BICS     r2,r2,r1
        0x00001a72:    60c2        .`      STR      r2,[r0,#0xc]
        0x00001a74:    4803        .H      LDR      r0,[pc,#12] ; [0x1a84] = 0x50000200
        0x00001a76:    6882        .h      LDR      r2,[r0,#8]
        0x00001a78:    438a        .C      BICS     r2,r2,r1
        0x00001a7a:    6082        .`      STR      r2,[r0,#8]
        0x00001a7c:    2000        .       MOVS     r0,#0
        0x00001a7e:    4770        pG      BX       lr
    $d
        0x00001a80:    40020000    ...@    DCD    1073872896
        0x00001a84:    50000200    ...P    DCD    1342177792
    $t
    i.DrvI2C_Ctrl
    DrvI2C_Ctrl
        0x00001a88:    b510        ..      PUSH     {r4,lr}
        0x00001a8a:    2400        .$      MOVS     r4,#0
        0x00001a8c:    2800        .(      CMP      r0,#0
        0x00001a8e:    d000        ..      BEQ      0x1a92 ; DrvI2C_Ctrl + 10
        0x00001a90:    2420         $      MOVS     r4,#0x20
        0x00001a92:    2900        .)      CMP      r1,#0
        0x00001a94:    d001        ..      BEQ      0x1a9a ; DrvI2C_Ctrl + 18
        0x00001a96:    2010        .       MOVS     r0,#0x10
        0x00001a98:    4304        .C      ORRS     r4,r4,r0
        0x00001a9a:    2a00        .*      CMP      r2,#0
        0x00001a9c:    d001        ..      BEQ      0x1aa2 ; DrvI2C_Ctrl + 26
        0x00001a9e:    2008        .       MOVS     r0,#8
        0x00001aa0:    4304        .C      ORRS     r4,r4,r0
        0x00001aa2:    2b00        .+      CMP      r3,#0
        0x00001aa4:    d001        ..      BEQ      0x1aaa ; DrvI2C_Ctrl + 34
        0x00001aa6:    2004        .       MOVS     r0,#4
        0x00001aa8:    4304        .C      ORRS     r4,r4,r0
        0x00001aaa:    4803        .H      LDR      r0,[pc,#12] ; [0x1ab8] = 0x40020000
        0x00001aac:    6801        .h      LDR      r1,[r0,#0]
        0x00001aae:    223c        <"      MOVS     r2,#0x3c
        0x00001ab0:    4391        .C      BICS     r1,r1,r2
        0x00001ab2:    4321        !C      ORRS     r1,r1,r4
        0x00001ab4:    6001        .`      STR      r1,[r0,#0]
        0x00001ab6:    bd10        ..      POP      {r4,pc}
    $d
        0x00001ab8:    40020000    ...@    DCD    1073872896
    $t
    i.DrvI2C_Open
    DrvI2C_Open
        0x00001abc:    b510        ..      PUSH     {r4,lr}
        0x00001abe:    0081        ..      LSLS     r1,r0,#2
        0x00001ac0:    4810        .H      LDR      r0,[pc,#64] ; [0x1b04] = 0x20000000
        0x00001ac2:    220a        ."      MOVS     r2,#0xa
        0x00001ac4:    6800        .h      LDR      r0,[r0,#0]
        0x00001ac6:    4350        PC      MULS     r0,r2,r0
        0x00001ac8:    f7fefc56    ..V.    BL       __aeabi_uidiv ; 0x378
        0x00001acc:    1d40        @.      ADDS     r0,r0,#5
        0x00001ace:    210a        .!      MOVS     r1,#0xa
        0x00001ad0:    f7fefc52    ..R.    BL       __aeabi_uidiv ; 0x378
        0x00001ad4:    1e40        @.      SUBS     r0,r0,#1
        0x00001ad6:    490c        .I      LDR      r1,[pc,#48] ; [0x1b08] = 0x50000200
        0x00001ad8:    688b        .h      LDR      r3,[r1,#8]
        0x00001ada:    22ff        ."      MOVS     r2,#0xff
        0x00001adc:    3201        .2      ADDS     r2,#1
        0x00001ade:    4313        .C      ORRS     r3,r3,r2
        0x00001ae0:    608b        .`      STR      r3,[r1,#8]
        0x00001ae2:    2105        .!      MOVS     r1,#5
        0x00001ae4:    0709        ..      LSLS     r1,r1,#28
        0x00001ae6:    68cb        .h      LDR      r3,[r1,#0xc]
        0x00001ae8:    4313        .C      ORRS     r3,r3,r2
        0x00001aea:    60cb        .`      STR      r3,[r1,#0xc]
        0x00001aec:    68cb        .h      LDR      r3,[r1,#0xc]
        0x00001aee:    4393        .C      BICS     r3,r3,r2
        0x00001af0:    60cb        .`      STR      r3,[r1,#0xc]
        0x00001af2:    4906        .I      LDR      r1,[pc,#24] ; [0x1b0c] = 0x40020000
        0x00001af4:    680a        .h      LDR      r2,[r1,#0]
        0x00001af6:    2340        @#      MOVS     r3,#0x40
        0x00001af8:    431a        .C      ORRS     r2,r2,r3
        0x00001afa:    600a        .`      STR      r2,[r1,#0]
        0x00001afc:    6108        .a      STR      r0,[r1,#0x10]
        0x00001afe:    2000        .       MOVS     r0,#0
        0x00001b00:    bd10        ..      POP      {r4,pc}
    $d
        0x00001b02:    0000        ..      DCW    0
        0x00001b04:    20000000    ...     DCD    536870912
        0x00001b08:    50000200    ...P    DCD    1342177792
        0x00001b0c:    40020000    ...@    DCD    1073872896
    $t
    i.DrvSYS_GetExtClockFreq
    DrvSYS_GetExtClockFreq
        0x00001b10:    4800        .H      LDR      r0,[pc,#0] ; [0x1b14] = 0xb71b00
        0x00001b12:    4770        pG      BX       lr
    $d
        0x00001b14:    00b71b00    ....    DCD    12000000
    $t
    i.DrvSYS_GetPLLClockFreq
    DrvSYS_GetPLLClockFreq
        0x00001b18:    b51f        ..      PUSH     {r0-r4,lr}
        0x00001b1a:    2000        .       MOVS     r0,#0
        0x00001b1c:    4913        .I      LDR      r1,[pc,#76] ; [0x1b6c] = 0x3d30
        0x00001b1e:    684c        Lh      LDR      r4,[r1,#4]
        0x00001b20:    680b        .h      LDR      r3,[r1,#0]
        0x00001b22:    688a        .h      LDR      r2,[r1,#8]
        0x00001b24:    68c9        .h      LDR      r1,[r1,#0xc]
        0x00001b26:    9401        ..      STR      r4,[sp,#4]
        0x00001b28:    9300        ..      STR      r3,[sp,#0]
        0x00001b2a:    9202        ..      STR      r2,[sp,#8]
        0x00001b2c:    9103        ..      STR      r1,[sp,#0xc]
        0x00001b2e:    4c10        .L      LDR      r4,[pc,#64] ; [0x1b70] = 0x50000200
        0x00001b30:    6a21        !j      LDR      r1,[r4,#0x20]
        0x00001b32:    0309        ..      LSLS     r1,r1,#12
        0x00001b34:    d501        ..      BPL      0x1b3a ; DrvSYS_GetPLLClockFreq + 34
        0x00001b36:    4a0f        .J      LDR      r2,[pc,#60] ; [0x1b74] = 0x1518000
        0x00001b38:    e000        ..      B        0x1b3c ; DrvSYS_GetPLLClockFreq + 36
        0x00001b3a:    4a0f        .J      LDR      r2,[pc,#60] ; [0x1b78] = 0xb71b00
        0x00001b3c:    6a21        !j      LDR      r1,[r4,#0x20]
        0x00001b3e:    03c9        ..      LSLS     r1,r1,#15
        0x00001b40:    d412        ..      BMI      0x1b68 ; DrvSYS_GetPLLClockFreq + 80
        0x00001b42:    6a20         j      LDR      r0,[r4,#0x20]
        0x00001b44:    0480        ..      LSLS     r0,r0,#18
        0x00001b46:    0ec1        ..      LSRS     r1,r0,#27
        0x00001b48:    6a20         j      LDR      r0,[r4,#0x20]
        0x00001b4a:    1c89        ..      ADDS     r1,r1,#2
        0x00001b4c:    05c0        ..      LSLS     r0,r0,#23
        0x00001b4e:    0dc0        ..      LSRS     r0,r0,#23
        0x00001b50:    1c80        ..      ADDS     r0,r0,#2
        0x00001b52:    4350        PC      MULS     r0,r2,r0
        0x00001b54:    f7fefc10    ....    BL       __aeabi_uidiv ; 0x378
        0x00001b58:    6a21        !j      LDR      r1,[r4,#0x20]
        0x00001b5a:    466a        jF      MOV      r2,sp
        0x00001b5c:    0409        ..      LSLS     r1,r1,#16
        0x00001b5e:    0f89        ..      LSRS     r1,r1,#30
        0x00001b60:    0089        ..      LSLS     r1,r1,#2
        0x00001b62:    5851        QX      LDR      r1,[r2,r1]
        0x00001b64:    f7fefc08    ....    BL       __aeabi_uidiv ; 0x378
        0x00001b68:    b004        ..      ADD      sp,sp,#0x10
        0x00001b6a:    bd10        ..      POP      {r4,pc}
    $d
        0x00001b6c:    00003d30    0=..    DCD    15664
        0x00001b70:    50000200    ...P    DCD    1342177792
        0x00001b74:    01518000    ..Q.    DCD    22118400
        0x00001b78:    00b71b00    ....    DCD    12000000
    $t
    i.DrvSYS_SelectIPClockSource
    DrvSYS_SelectIPClockSource
        0x00001b7c:    b570        p.      PUSH     {r4-r6,lr}
        0x00001b7e:    078a        ..      LSLS     r2,r1,#30
        0x00001b80:    4603        .F      MOV      r3,r0
        0x00001b82:    0f92        ..      LSRS     r2,r2,#30
        0x00001b84:    074c        L.      LSLS     r4,r1,#29
        0x00001b86:    4833        3H      LDR      r0,[pc,#204] ; [0x1c54] = 0x50000200
        0x00001b88:    260c        .&      MOVS     r6,#0xc
        0x00001b8a:    0095        ..      LSLS     r5,r2,#2
        0x00001b8c:    0f64        d.      LSRS     r4,r4,#29
        0x00001b8e:    f001fbd7    ....    BL       __ARM_common_switch8 ; 0x3340
    $d
        0x00001b92:    580c        .X      DCW    22540
        0x00001b94:    3b434b53    SKC;    DCD    994265939
        0x00001b98:    1a212a33    3*!.    DCD    438381107
        0x00001b9c:    5f0c1307    ..._    DCD    1594626823
    $t
        0x00001ba0:    69c1        .i      LDR      r1,[r0,#0x1c]
        0x00001ba2:    43b1        .C      BICS     r1,r1,r6
        0x00001ba4:    4329        )C      ORRS     r1,r1,r5
        0x00001ba6:    61c1        .a      STR      r1,[r0,#0x1c]
        0x00001ba8:    e050        P.      B        0x1c4c ; DrvSYS_SelectIPClockSource + 208
        0x00001baa:    69c1        .i      LDR      r1,[r0,#0x1c]
        0x00001bac:    23c0        .#      MOVS     r3,#0xc0
        0x00001bae:    4399        .C      BICS     r1,r1,r3
        0x00001bb0:    0192        ..      LSLS     r2,r2,#6
        0x00001bb2:    4311        .C      ORRS     r1,r1,r2
        0x00001bb4:    61c1        .a      STR      r1,[r0,#0x1c]
        0x00001bb6:    e049        I.      B        0x1c4c ; DrvSYS_SelectIPClockSource + 208
        0x00001bb8:    69c1        .i      LDR      r1,[r0,#0x1c]
        0x00001bba:    2330        0#      MOVS     r3,#0x30
        0x00001bbc:    4399        .C      BICS     r1,r1,r3
        0x00001bbe:    0112        ..      LSLS     r2,r2,#4
        0x00001bc0:    4311        .C      ORRS     r1,r1,r2
        0x00001bc2:    61c1        .a      STR      r1,[r0,#0x1c]
        0x00001bc4:    e042        B.      B        0x1c4c ; DrvSYS_SelectIPClockSource + 208
        0x00001bc6:    6942        Bi      LDR      r2,[r0,#0x14]
        0x00001bc8:    0092        ..      LSLS     r2,r2,#2
        0x00001bca:    0892        ..      LSRS     r2,r2,#2
        0x00001bcc:    0789        ..      LSLS     r1,r1,#30
        0x00001bce:    430a        .C      ORRS     r2,r2,r1
        0x00001bd0:    6142        Ba      STR      r2,[r0,#0x14]
        0x00001bd2:    e03b        ;.      B        0x1c4c ; DrvSYS_SelectIPClockSource + 208
        0x00001bd4:    6942        Bi      LDR      r2,[r0,#0x14]
        0x00001bd6:    2303        .#      MOVS     r3,#3
        0x00001bd8:    071b        ..      LSLS     r3,r3,#28
        0x00001bda:    0789        ..      LSLS     r1,r1,#30
        0x00001bdc:    439a        .C      BICS     r2,r2,r3
        0x00001bde:    0889        ..      LSRS     r1,r1,#2
        0x00001be0:    430a        .C      ORRS     r2,r2,r1
        0x00001be2:    6142        Ba      STR      r2,[r0,#0x14]
        0x00001be4:    e032        2.      B        0x1c4c ; DrvSYS_SelectIPClockSource + 208
        0x00001be6:    6942        Bi      LDR      r2,[r0,#0x14]
        0x00001be8:    2303        .#      MOVS     r3,#3
        0x00001bea:    061b        ..      LSLS     r3,r3,#24
        0x00001bec:    0789        ..      LSLS     r1,r1,#30
        0x00001bee:    439a        .C      BICS     r2,r2,r3
        0x00001bf0:    0989        ..      LSRS     r1,r1,#6
        0x00001bf2:    430a        .C      ORRS     r2,r2,r1
        0x00001bf4:    6142        Ba      STR      r2,[r0,#0x14]
        0x00001bf6:    e029        ).      B        0x1c4c ; DrvSYS_SelectIPClockSource + 208
        0x00001bf8:    6941        Ai      LDR      r1,[r0,#0x14]
        0x00001bfa:    2207        ."      MOVS     r2,#7
        0x00001bfc:    0512        ..      LSLS     r2,r2,#20
        0x00001bfe:    4391        .C      BICS     r1,r1,r2
        0x00001c00:    0522        ".      LSLS     r2,r4,#20
        0x00001c02:    4311        .C      ORRS     r1,r1,r2
        0x00001c04:    6141        Aa      STR      r1,[r0,#0x14]
        0x00001c06:    e021        !.      B        0x1c4c ; DrvSYS_SelectIPClockSource + 208
        0x00001c08:    6941        Ai      LDR      r1,[r0,#0x14]
        0x00001c0a:    2207        ."      MOVS     r2,#7
        0x00001c0c:    0412        ..      LSLS     r2,r2,#16
        0x00001c0e:    4391        .C      BICS     r1,r1,r2
        0x00001c10:    0422        ".      LSLS     r2,r4,#16
        0x00001c12:    4311        .C      ORRS     r1,r1,r2
        0x00001c14:    6141        Aa      STR      r1,[r0,#0x14]
        0x00001c16:    e019        ..      B        0x1c4c ; DrvSYS_SelectIPClockSource + 208
        0x00001c18:    6941        Ai      LDR      r1,[r0,#0x14]
        0x00001c1a:    2207        ."      MOVS     r2,#7
        0x00001c1c:    0312        ..      LSLS     r2,r2,#12
        0x00001c1e:    4391        .C      BICS     r1,r1,r2
        0x00001c20:    0322        ".      LSLS     r2,r4,#12
        0x00001c22:    4311        .C      ORRS     r1,r1,r2
        0x00001c24:    6141        Aa      STR      r1,[r0,#0x14]
        0x00001c26:    e011        ..      B        0x1c4c ; DrvSYS_SelectIPClockSource + 208
        0x00001c28:    6941        Ai      LDR      r1,[r0,#0x14]
        0x00001c2a:    2207        ."      MOVS     r2,#7
        0x00001c2c:    0212        ..      LSLS     r2,r2,#8
        0x00001c2e:    4391        .C      BICS     r1,r1,r2
        0x00001c30:    0222        ".      LSLS     r2,r4,#8
        0x00001c32:    4311        .C      ORRS     r1,r1,r2
        0x00001c34:    6141        Aa      STR      r1,[r0,#0x14]
        0x00001c36:    e009        ..      B        0x1c4c ; DrvSYS_SelectIPClockSource + 208
        0x00001c38:    6941        Ai      LDR      r1,[r0,#0x14]
        0x00001c3a:    43b1        .C      BICS     r1,r1,r6
        0x00001c3c:    4329        )C      ORRS     r1,r1,r5
        0x00001c3e:    6141        Aa      STR      r1,[r0,#0x14]
        0x00001c40:    e004        ..      B        0x1c4c ; DrvSYS_SelectIPClockSource + 208
        0x00001c42:    6941        Ai      LDR      r1,[r0,#0x14]
        0x00001c44:    0889        ..      LSRS     r1,r1,#2
        0x00001c46:    0089        ..      LSLS     r1,r1,#2
        0x00001c48:    4311        .C      ORRS     r1,r1,r2
        0x00001c4a:    6141        Aa      STR      r1,[r0,#0x14]
        0x00001c4c:    2000        .       MOVS     r0,#0
        0x00001c4e:    bd70        p.      POP      {r4-r6,pc}
        0x00001c50:    4801        .H      LDR      r0,[pc,#4] ; [0x1c58] = 0xffff9604
        0x00001c52:    bd70        p.      POP      {r4-r6,pc}
    $d
        0x00001c54:    50000200    ...P    DCD    1342177792
        0x00001c58:    ffff9604    ....    DCD    4294940164
    $t
    i.DrvSYS_SetOscCtrl
    DrvSYS_SetOscCtrl
        0x00001c5c:    4a10        .J      LDR      r2,[pc,#64] ; [0x1ca0] = 0x50000200
        0x00001c5e:    2800        .(      CMP      r0,#0
        0x00001c60:    d005        ..      BEQ      0x1c6e ; DrvSYS_SetOscCtrl + 18
        0x00001c62:    2801        .(      CMP      r0,#1
        0x00001c64:    d00b        ..      BEQ      0x1c7e ; DrvSYS_SetOscCtrl + 34
        0x00001c66:    2802        .(      CMP      r0,#2
        0x00001c68:    d011        ..      BEQ      0x1c8e ; DrvSYS_SetOscCtrl + 50
        0x00001c6a:    480e        .H      LDR      r0,[pc,#56] ; [0x1ca4] = 0xffff9603
        0x00001c6c:    4770        pG      BX       lr
        0x00001c6e:    6810        .h      LDR      r0,[r2,#0]
        0x00001c70:    07c9        ..      LSLS     r1,r1,#31
        0x00001c72:    0840        @.      LSRS     r0,r0,#1
        0x00001c74:    0040        @.      LSLS     r0,r0,#1
        0x00001c76:    0fc9        ..      LSRS     r1,r1,#31
        0x00001c78:    4308        .C      ORRS     r0,r0,r1
        0x00001c7a:    6010        .`      STR      r0,[r2,#0]
        0x00001c7c:    e00e        ..      B        0x1c9c ; DrvSYS_SetOscCtrl + 64
        0x00001c7e:    6810        .h      LDR      r0,[r2,#0]
        0x00001c80:    2304        .#      MOVS     r3,#4
        0x00001c82:    07c9        ..      LSLS     r1,r1,#31
        0x00001c84:    4398        .C      BICS     r0,r0,r3
        0x00001c86:    0f49        I.      LSRS     r1,r1,#29
        0x00001c88:    4308        .C      ORRS     r0,r0,r1
        0x00001c8a:    6010        .`      STR      r0,[r2,#0]
        0x00001c8c:    e006        ..      B        0x1c9c ; DrvSYS_SetOscCtrl + 64
        0x00001c8e:    6810        .h      LDR      r0,[r2,#0]
        0x00001c90:    2308        .#      MOVS     r3,#8
        0x00001c92:    07c9        ..      LSLS     r1,r1,#31
        0x00001c94:    4398        .C      BICS     r0,r0,r3
        0x00001c96:    0f09        ..      LSRS     r1,r1,#28
        0x00001c98:    4308        .C      ORRS     r0,r0,r1
        0x00001c9a:    6010        .`      STR      r0,[r2,#0]
        0x00001c9c:    2000        .       MOVS     r0,#0
        0x00001c9e:    4770        pG      BX       lr
    $d
        0x00001ca0:    50000200    ...P    DCD    1342177792
        0x00001ca4:    ffff9603    ....    DCD    4294940163
    $t
    i.DrvTIMER_EnableInt
    DrvTIMER_EnableInt
        0x00001ca8:    b510        ..      PUSH     {r4,lr}
        0x00001caa:    4a1d        .J      LDR      r2,[pc,#116] ; [0x1d20] = 0x40010000
        0x00001cac:    0351        Q.      LSLS     r1,r2,#13
        0x00001cae:    2800        .(      CMP      r0,#0
        0x00001cb0:    d008        ..      BEQ      0x1cc4 ; DrvTIMER_EnableInt + 28
        0x00001cb2:    2801        .(      CMP      r0,#1
        0x00001cb4:    d011        ..      BEQ      0x1cda ; DrvTIMER_EnableInt + 50
        0x00001cb6:    4a1b        .J      LDR      r2,[pc,#108] ; [0x1d24] = 0x40110000
        0x00001cb8:    2802        .(      CMP      r0,#2
        0x00001cba:    d019        ..      BEQ      0x1cf0 ; DrvTIMER_EnableInt + 72
        0x00001cbc:    2803        .(      CMP      r0,#3
        0x00001cbe:    d022        ".      BEQ      0x1d06 ; DrvTIMER_EnableInt + 94
        0x00001cc0:    4819        .H      LDR      r0,[pc,#100] ; [0x1d28] = 0xffff9701
        0x00001cc2:    bd10        ..      POP      {r4,pc}
        0x00001cc4:    6810        .h      LDR      r0,[r2,#0]
        0x00001cc6:    4308        .C      ORRS     r0,r0,r1
        0x00001cc8:    6010        .`      STR      r0,[r2,#0]
        0x00001cca:    2102        .!      MOVS     r1,#2
        0x00001ccc:    2008        .       MOVS     r0,#8
        0x00001cce:    f000fcff    ....    BL       NVIC_SetPriority ; 0x26d0
        0x00001cd2:    2008        .       MOVS     r0,#8
        0x00001cd4:    f000fcf2    ....    BL       NVIC_EnableIRQ ; 0x26bc
        0x00001cd8:    e01f        ..      B        0x1d1a ; DrvTIMER_EnableInt + 114
        0x00001cda:    6a10        .j      LDR      r0,[r2,#0x20]
        0x00001cdc:    4308        .C      ORRS     r0,r0,r1
        0x00001cde:    6210        .b      STR      r0,[r2,#0x20]
        0x00001ce0:    2102        .!      MOVS     r1,#2
        0x00001ce2:    2009        .       MOVS     r0,#9
        0x00001ce4:    f000fcf4    ....    BL       NVIC_SetPriority ; 0x26d0
        0x00001ce8:    2009        .       MOVS     r0,#9
        0x00001cea:    f000fce7    ....    BL       NVIC_EnableIRQ ; 0x26bc
        0x00001cee:    e014        ..      B        0x1d1a ; DrvTIMER_EnableInt + 114
        0x00001cf0:    6810        .h      LDR      r0,[r2,#0]
        0x00001cf2:    4308        .C      ORRS     r0,r0,r1
        0x00001cf4:    6010        .`      STR      r0,[r2,#0]
        0x00001cf6:    2102        .!      MOVS     r1,#2
        0x00001cf8:    200a        .       MOVS     r0,#0xa
        0x00001cfa:    f000fce9    ....    BL       NVIC_SetPriority ; 0x26d0
        0x00001cfe:    200a        .       MOVS     r0,#0xa
        0x00001d00:    f000fcdc    ....    BL       NVIC_EnableIRQ ; 0x26bc
        0x00001d04:    e009        ..      B        0x1d1a ; DrvTIMER_EnableInt + 114
        0x00001d06:    6a10        .j      LDR      r0,[r2,#0x20]
        0x00001d08:    4308        .C      ORRS     r0,r0,r1
        0x00001d0a:    6210        .b      STR      r0,[r2,#0x20]
        0x00001d0c:    2102        .!      MOVS     r1,#2
        0x00001d0e:    200b        .       MOVS     r0,#0xb
        0x00001d10:    f000fcde    ....    BL       NVIC_SetPriority ; 0x26d0
        0x00001d14:    200b        .       MOVS     r0,#0xb
        0x00001d16:    f000fcd1    ....    BL       NVIC_EnableIRQ ; 0x26bc
        0x00001d1a:    2000        .       MOVS     r0,#0
        0x00001d1c:    bd10        ..      POP      {r4,pc}
    $d
        0x00001d1e:    0000        ..      DCW    0
        0x00001d20:    40010000    ...@    DCD    1073807360
        0x00001d24:    40110000    ...@    DCD    1074855936
        0x00001d28:    ffff9701    ....    DCD    4294940417
    $t
    i.DrvTIMER_Init
    DrvTIMER_Init
        0x00001d2c:    4803        .H      LDR      r0,[pc,#12] ; [0x1d3c] = 0x20000060
        0x00001d2e:    2101        .!      MOVS     r1,#1
        0x00001d30:    6001        .`      STR      r1,[r0,#0]
        0x00001d32:    6041        A`      STR      r1,[r0,#4]
        0x00001d34:    6081        .`      STR      r1,[r0,#8]
        0x00001d36:    60c1        .`      STR      r1,[r0,#0xc]
        0x00001d38:    4770        pG      BX       lr
    $d
        0x00001d3a:    0000        ..      DCW    0
        0x00001d3c:    20000060    `..     DCD    536871008
    $t
    i.DrvTIMER_Open
    DrvTIMER_Open
        0x00001d40:    b5f8        ..      PUSH     {r3-r7,lr}
        0x00001d42:    460c        .F      MOV      r4,r1
        0x00001d44:    2500        .%      MOVS     r5,#0
        0x00001d46:    06d6        ..      LSLS     r6,r2,#27
        0x00001d48:    2101        .!      MOVS     r1,#1
        0x00001d4a:    4b6f        oK      LDR      r3,[pc,#444] ; [0x1f08] = 0x50000200
        0x00001d4c:    4f6f        oO      LDR      r7,[pc,#444] ; [0x1f0c] = 0x20000060
        0x00001d4e:    2200        ."      MOVS     r2,#0
        0x00001d50:    2800        .(      CMP      r0,#0
        0x00001d52:    d007        ..      BEQ      0x1d64 ; DrvTIMER_Open + 36
        0x00001d54:    2801        .(      CMP      r0,#1
        0x00001d56:    d038        8.      BEQ      0x1dca ; DrvTIMER_Open + 138
        0x00001d58:    2802        .(      CMP      r0,#2
        0x00001d5a:    d06a        j.      BEQ      0x1e32 ; DrvTIMER_Open + 242
        0x00001d5c:    2803        .(      CMP      r0,#3
        0x00001d5e:    d071        q.      BEQ      0x1e44 ; DrvTIMER_Open + 260
        0x00001d60:    486b        kH      LDR      r0,[pc,#428] ; [0x1f10] = 0xffff9701
        0x00001d62:    bdf8        ..      POP      {r3-r7,pc}
        0x00001d64:    6838        8h      LDR      r0,[r7,#0]
        0x00001d66:    2801        .(      CMP      r0,#1
        0x00001d68:    d102        ..      BNE      0x1d70 ; DrvTIMER_Open + 48
        0x00001d6a:    6938        8i      LDR      r0,[r7,#0x10]
        0x00001d6c:    2800        .(      CMP      r0,#0
        0x00001d6e:    d002        ..      BEQ      0x1d76 ; DrvTIMER_Open + 54
        0x00001d70:    4867        gH      LDR      r0,[pc,#412] ; [0x1f10] = 0xffff9701
        0x00001d72:    1c80        ..      ADDS     r0,r0,#2
        0x00001d74:    bdf8        ..      POP      {r3-r7,pc}
        0x00001d76:    4865        eH      LDR      r0,[pc,#404] ; [0x1f0c] = 0x20000060
        0x00001d78:    6101        .a      STR      r1,[r0,#0x10]
        0x00001d7a:    6898        .h      LDR      r0,[r3,#8]
        0x00001d7c:    2704        .'      MOVS     r7,#4
        0x00001d7e:    4338        8C      ORRS     r0,r0,r7
        0x00001d80:    6098        .`      STR      r0,[r3,#8]
        0x00001d82:    4f64        dO      LDR      r7,[pc,#400] ; [0x1f14] = 0x40010000
        0x00001d84:    603a        :`      STR      r2,[r7,#0]
        0x00001d86:    68b8        .h      LDR      r0,[r7,#8]
        0x00001d88:    4308        .C      ORRS     r0,r0,r1
        0x00001d8a:    60b8        .`      STR      r0,[r7,#8]
        0x00001d8c:    2000        .       MOVS     r0,#0
        0x00001d8e:    2314        .#      MOVS     r3,#0x14
        0x00001d90:    4601        .F      MOV      r1,r0
        0x00001d92:    4359        YC      MULS     r1,r3,r1
        0x00001d94:    4b60        `K      LDR      r3,[pc,#384] ; [0x1f18] = 0x20000228
        0x00001d96:    505a        ZP      STR      r2,[r3,r1]
        0x00001d98:    1c40        @.      ADDS     r0,r0,#1
        0x00001d9a:    2800        .(      CMP      r0,#0
        0x00001d9c:    d0f7        ..      BEQ      0x1d8e ; DrvTIMER_Open + 78
        0x00001d9e:    485b        [H      LDR      r0,[pc,#364] ; [0x1f0c] = 0x20000060
        0x00001da0:    6302        .c      STR      r2,[r0,#0x30]
        0x00001da2:    6544        De      STR      r4,[r0,#0x54]
        0x00001da4:    2000        .       MOVS     r0,#0
        0x00001da6:    f000fbdb    ....    BL       GetTimerClock ; 0x2560
        0x00001daa:    4621        !F      MOV      r1,r4
        0x00001dac:    f7fffca0    ....    BL       CalTimerInitValue ; 0x16f0
        0x00001db0:    1c41        A.      ADDS     r1,r0,#1
        0x00001db2:    d007        ..      BEQ      0x1dc4 ; DrvTIMER_Open + 132
        0x00001db4:    0201        ..      LSLS     r1,r0,#8
        0x00001db6:    0a09        ..      LSRS     r1,r1,#8
        0x00001db8:    6079        y`      STR      r1,[r7,#4]
        0x00001dba:    0e00        ..      LSRS     r0,r0,#24
        0x00001dbc:    4328        (C      ORRS     r0,r0,r5
        0x00001dbe:    4330        0C      ORRS     r0,r0,r6
        0x00001dc0:    6038        8`      STR      r0,[r7,#0]
        0x00001dc2:    e09b        ..      B        0x1efc ; DrvTIMER_Open + 444
        0x00001dc4:    4852        RH      LDR      r0,[pc,#328] ; [0x1f10] = 0xffff9701
        0x00001dc6:    1c40        @.      ADDS     r0,r0,#1
        0x00001dc8:    bdf8        ..      POP      {r3-r7,pc}
        0x00001dca:    6878        xh      LDR      r0,[r7,#4]
        0x00001dcc:    2801        .(      CMP      r0,#1
        0x00001dce:    d102        ..      BNE      0x1dd6 ; DrvTIMER_Open + 150
        0x00001dd0:    6978        xi      LDR      r0,[r7,#0x14]
        0x00001dd2:    2800        .(      CMP      r0,#0
        0x00001dd4:    d002        ..      BEQ      0x1ddc ; DrvTIMER_Open + 156
        0x00001dd6:    484e        NH      LDR      r0,[pc,#312] ; [0x1f10] = 0xffff9701
        0x00001dd8:    1c80        ..      ADDS     r0,r0,#2
        0x00001dda:    bdf8        ..      POP      {r3-r7,pc}
        0x00001ddc:    484b        KH      LDR      r0,[pc,#300] ; [0x1f0c] = 0x20000060
        0x00001dde:    6141        Aa      STR      r1,[r0,#0x14]
        0x00001de0:    6898        .h      LDR      r0,[r3,#8]
        0x00001de2:    2708        .'      MOVS     r7,#8
        0x00001de4:    4338        8C      ORRS     r0,r0,r7
        0x00001de6:    6098        .`      STR      r0,[r3,#8]
        0x00001de8:    4f4a        JO      LDR      r7,[pc,#296] ; [0x1f14] = 0x40010000
        0x00001dea:    623a        :b      STR      r2,[r7,#0x20]
        0x00001dec:    6ab8        .j      LDR      r0,[r7,#0x28]
        0x00001dee:    4308        .C      ORRS     r0,r0,r1
        0x00001df0:    62b8        .b      STR      r0,[r7,#0x28]
        0x00001df2:    2000        .       MOVS     r0,#0
        0x00001df4:    2314        .#      MOVS     r3,#0x14
        0x00001df6:    4601        .F      MOV      r1,r0
        0x00001df8:    4359        YC      MULS     r1,r3,r1
        0x00001dfa:    4b47        GK      LDR      r3,[pc,#284] ; [0x1f18] = 0x20000228
        0x00001dfc:    3314        .3      ADDS     r3,r3,#0x14
        0x00001dfe:    505a        ZP      STR      r2,[r3,r1]
        0x00001e00:    1c40        @.      ADDS     r0,r0,#1
        0x00001e02:    2800        .(      CMP      r0,#0
        0x00001e04:    d0f6        ..      BEQ      0x1df4 ; DrvTIMER_Open + 180
        0x00001e06:    4841        AH      LDR      r0,[pc,#260] ; [0x1f0c] = 0x20000060
        0x00001e08:    6342        Bc      STR      r2,[r0,#0x34]
        0x00001e0a:    6584        .e      STR      r4,[r0,#0x58]
        0x00001e0c:    2001        .       MOVS     r0,#1
        0x00001e0e:    f000fba7    ....    BL       GetTimerClock ; 0x2560
        0x00001e12:    4621        !F      MOV      r1,r4
        0x00001e14:    f7fffc6c    ..l.    BL       CalTimerInitValue ; 0x16f0
        0x00001e18:    1c41        A.      ADDS     r1,r0,#1
        0x00001e1a:    d007        ..      BEQ      0x1e2c ; DrvTIMER_Open + 236
        0x00001e1c:    0201        ..      LSLS     r1,r0,#8
        0x00001e1e:    0a09        ..      LSRS     r1,r1,#8
        0x00001e20:    6279        yb      STR      r1,[r7,#0x24]
        0x00001e22:    0e00        ..      LSRS     r0,r0,#24
        0x00001e24:    4328        (C      ORRS     r0,r0,r5
        0x00001e26:    4330        0C      ORRS     r0,r0,r6
        0x00001e28:    6238        8b      STR      r0,[r7,#0x20]
        0x00001e2a:    e067        g.      B        0x1efc ; DrvTIMER_Open + 444
        0x00001e2c:    4838        8H      LDR      r0,[pc,#224] ; [0x1f10] = 0xffff9701
        0x00001e2e:    1c40        @.      ADDS     r0,r0,#1
        0x00001e30:    bdf8        ..      POP      {r3-r7,pc}
        0x00001e32:    68b8        .h      LDR      r0,[r7,#8]
        0x00001e34:    2801        .(      CMP      r0,#1
        0x00001e36:    d102        ..      BNE      0x1e3e ; DrvTIMER_Open + 254
        0x00001e38:    69b8        .i      LDR      r0,[r7,#0x18]
        0x00001e3a:    2800        .(      CMP      r0,#0
        0x00001e3c:    d003        ..      BEQ      0x1e46 ; DrvTIMER_Open + 262
        0x00001e3e:    4834        4H      LDR      r0,[pc,#208] ; [0x1f10] = 0xffff9701
        0x00001e40:    1c80        ..      ADDS     r0,r0,#2
        0x00001e42:    bdf8        ..      POP      {r3-r7,pc}
        0x00001e44:    e02a        *.      B        0x1e9c ; DrvTIMER_Open + 348
        0x00001e46:    4831        1H      LDR      r0,[pc,#196] ; [0x1f0c] = 0x20000060
        0x00001e48:    6181        .a      STR      r1,[r0,#0x18]
        0x00001e4a:    6898        .h      LDR      r0,[r3,#8]
        0x00001e4c:    2710        .'      MOVS     r7,#0x10
        0x00001e4e:    4338        8C      ORRS     r0,r0,r7
        0x00001e50:    6098        .`      STR      r0,[r3,#8]
        0x00001e52:    4f32        2O      LDR      r7,[pc,#200] ; [0x1f1c] = 0x40110000
        0x00001e54:    603a        :`      STR      r2,[r7,#0]
        0x00001e56:    68b8        .h      LDR      r0,[r7,#8]
        0x00001e58:    4308        .C      ORRS     r0,r0,r1
        0x00001e5a:    60b8        .`      STR      r0,[r7,#8]
        0x00001e5c:    2000        .       MOVS     r0,#0
        0x00001e5e:    2314        .#      MOVS     r3,#0x14
        0x00001e60:    4601        .F      MOV      r1,r0
        0x00001e62:    4359        YC      MULS     r1,r3,r1
        0x00001e64:    4b2c        ,K      LDR      r3,[pc,#176] ; [0x1f18] = 0x20000228
        0x00001e66:    3328        (3      ADDS     r3,r3,#0x28
        0x00001e68:    505a        ZP      STR      r2,[r3,r1]
        0x00001e6a:    1c40        @.      ADDS     r0,r0,#1
        0x00001e6c:    2800        .(      CMP      r0,#0
        0x00001e6e:    d0f6        ..      BEQ      0x1e5e ; DrvTIMER_Open + 286
        0x00001e70:    4826        &H      LDR      r0,[pc,#152] ; [0x1f0c] = 0x20000060
        0x00001e72:    6382        .c      STR      r2,[r0,#0x38]
        0x00001e74:    65c4        .e      STR      r4,[r0,#0x5c]
        0x00001e76:    2002        .       MOVS     r0,#2
        0x00001e78:    f000fb72    ..r.    BL       GetTimerClock ; 0x2560
        0x00001e7c:    4621        !F      MOV      r1,r4
        0x00001e7e:    f7fffc37    ..7.    BL       CalTimerInitValue ; 0x16f0
        0x00001e82:    1c41        A.      ADDS     r1,r0,#1
        0x00001e84:    d007        ..      BEQ      0x1e96 ; DrvTIMER_Open + 342
        0x00001e86:    0201        ..      LSLS     r1,r0,#8
        0x00001e88:    0a09        ..      LSRS     r1,r1,#8
        0x00001e8a:    6079        y`      STR      r1,[r7,#4]
        0x00001e8c:    0e00        ..      LSRS     r0,r0,#24
        0x00001e8e:    4328        (C      ORRS     r0,r0,r5
        0x00001e90:    4330        0C      ORRS     r0,r0,r6
        0x00001e92:    6038        8`      STR      r0,[r7,#0]
        0x00001e94:    e032        2.      B        0x1efc ; DrvTIMER_Open + 444
        0x00001e96:    481e        .H      LDR      r0,[pc,#120] ; [0x1f10] = 0xffff9701
        0x00001e98:    1c40        @.      ADDS     r0,r0,#1
        0x00001e9a:    e7d2        ..      B        0x1e42 ; DrvTIMER_Open + 258
        0x00001e9c:    68f8        .h      LDR      r0,[r7,#0xc]
        0x00001e9e:    2801        .(      CMP      r0,#1
        0x00001ea0:    d102        ..      BNE      0x1ea8 ; DrvTIMER_Open + 360
        0x00001ea2:    69f8        .i      LDR      r0,[r7,#0x1c]
        0x00001ea4:    2800        .(      CMP      r0,#0
        0x00001ea6:    d002        ..      BEQ      0x1eae ; DrvTIMER_Open + 366
        0x00001ea8:    4819        .H      LDR      r0,[pc,#100] ; [0x1f10] = 0xffff9701
        0x00001eaa:    1c80        ..      ADDS     r0,r0,#2
        0x00001eac:    e7c9        ..      B        0x1e42 ; DrvTIMER_Open + 258
        0x00001eae:    4817        .H      LDR      r0,[pc,#92] ; [0x1f0c] = 0x20000060
        0x00001eb0:    61c1        .a      STR      r1,[r0,#0x1c]
        0x00001eb2:    6898        .h      LDR      r0,[r3,#8]
        0x00001eb4:    2720         '      MOVS     r7,#0x20
        0x00001eb6:    4338        8C      ORRS     r0,r0,r7
        0x00001eb8:    6098        .`      STR      r0,[r3,#8]
        0x00001eba:    4f18        .O      LDR      r7,[pc,#96] ; [0x1f1c] = 0x40110000
        0x00001ebc:    623a        :b      STR      r2,[r7,#0x20]
        0x00001ebe:    6ab8        .j      LDR      r0,[r7,#0x28]
        0x00001ec0:    4308        .C      ORRS     r0,r0,r1
        0x00001ec2:    62b8        .b      STR      r0,[r7,#0x28]
        0x00001ec4:    2000        .       MOVS     r0,#0
        0x00001ec6:    2314        .#      MOVS     r3,#0x14
        0x00001ec8:    4601        .F      MOV      r1,r0
        0x00001eca:    4359        YC      MULS     r1,r3,r1
        0x00001ecc:    4b12        .K      LDR      r3,[pc,#72] ; [0x1f18] = 0x20000228
        0x00001ece:    333c        <3      ADDS     r3,r3,#0x3c
        0x00001ed0:    505a        ZP      STR      r2,[r3,r1]
        0x00001ed2:    1c40        @.      ADDS     r0,r0,#1
        0x00001ed4:    2800        .(      CMP      r0,#0
        0x00001ed6:    d0f6        ..      BEQ      0x1ec6 ; DrvTIMER_Open + 390
        0x00001ed8:    480c        .H      LDR      r0,[pc,#48] ; [0x1f0c] = 0x20000060
        0x00001eda:    63c2        .c      STR      r2,[r0,#0x3c]
        0x00001edc:    6604        .f      STR      r4,[r0,#0x60]
        0x00001ede:    2003        .       MOVS     r0,#3
        0x00001ee0:    f000fb3e    ..>.    BL       GetTimerClock ; 0x2560
        0x00001ee4:    4621        !F      MOV      r1,r4
        0x00001ee6:    f7fffc03    ....    BL       CalTimerInitValue ; 0x16f0
        0x00001eea:    1c41        A.      ADDS     r1,r0,#1
        0x00001eec:    d008        ..      BEQ      0x1f00 ; DrvTIMER_Open + 448
        0x00001eee:    0201        ..      LSLS     r1,r0,#8
        0x00001ef0:    0a09        ..      LSRS     r1,r1,#8
        0x00001ef2:    6279        yb      STR      r1,[r7,#0x24]
        0x00001ef4:    0e00        ..      LSRS     r0,r0,#24
        0x00001ef6:    4328        (C      ORRS     r0,r0,r5
        0x00001ef8:    4330        0C      ORRS     r0,r0,r6
        0x00001efa:    6238        8b      STR      r0,[r7,#0x20]
        0x00001efc:    2000        .       MOVS     r0,#0
        0x00001efe:    e7a0        ..      B        0x1e42 ; DrvTIMER_Open + 258
        0x00001f00:    4803        .H      LDR      r0,[pc,#12] ; [0x1f10] = 0xffff9701
        0x00001f02:    1c40        @.      ADDS     r0,r0,#1
        0x00001f04:    e79d        ..      B        0x1e42 ; DrvTIMER_Open + 258
    $d
        0x00001f06:    0000        ..      DCW    0
        0x00001f08:    50000200    ...P    DCD    1342177792
        0x00001f0c:    20000060    `..     DCD    536871008
        0x00001f10:    ffff9701    ....    DCD    4294940417
        0x00001f14:    40010000    ...@    DCD    1073807360
        0x00001f18:    20000228    (..     DCD    536871464
        0x00001f1c:    40110000    ...@    DCD    1074855936
    $t
    i.DrvTIMER_SetTimerEvent
    DrvTIMER_SetTimerEvent
        0x00001f20:    b5f0        ..      PUSH     {r4-r7,lr}
        0x00001f22:    4604        .F      MOV      r4,r0
        0x00001f24:    2000        .       MOVS     r0,#0
        0x00001f26:    4f47        GO      LDR      r7,[pc,#284] ; [0x2044] = 0xffff9704
        0x00001f28:    4d47        GM      LDR      r5,[pc,#284] ; [0x2048] = 0x20000060
        0x00001f2a:    2601        .&      MOVS     r6,#1
        0x00001f2c:    2c00        .,      CMP      r4,#0
        0x00001f2e:    d00a        ..      BEQ      0x1f46 ; DrvTIMER_SetTimerEvent + 38
        0x00001f30:    2c01        .,      CMP      r4,#1
        0x00001f32:    d028        (.      BEQ      0x1f86 ; DrvTIMER_SetTimerEvent + 102
        0x00001f34:    2c02        .,      CMP      r4,#2
        0x00001f36:    d047        G.      BEQ      0x1fc8 ; DrvTIMER_SetTimerEvent + 168
        0x00001f38:    2c03        .,      CMP      r4,#3
        0x00001f3a:    d103        ..      BNE      0x1f44 ; DrvTIMER_SetTimerEvent + 36
        0x00001f3c:    6cec        .l      LDR      r4,[r5,#0x4c]
        0x00001f3e:    2c00        .,      CMP      r4,#0
        0x00001f40:    d063        c.      BEQ      0x200a ; DrvTIMER_SetTimerEvent + 234
        0x00001f42:    4638        8F      MOV      r0,r7
        0x00001f44:    bdf0        ..      POP      {r4-r7,pc}
        0x00001f46:    6c2c        ,l      LDR      r4,[r5,#0x40]
        0x00001f48:    2c00        .,      CMP      r4,#0
        0x00001f4a:    d001        ..      BEQ      0x1f50 ; DrvTIMER_SetTimerEvent + 48
        0x00001f4c:    4638        8F      MOV      r0,r7
        0x00001f4e:    bdf0        ..      POP      {r4-r7,pc}
        0x00001f50:    622e        .b      STR      r6,[r5,#0x20]
        0x00001f52:    6c2c        ,l      LDR      r4,[r5,#0x40]
        0x00001f54:    1c64        d.      ADDS     r4,r4,#1
        0x00001f56:    642c        ,d      STR      r4,[r5,#0x40]
        0x00001f58:    2400        .$      MOVS     r4,#0
        0x00001f5a:    4f3c        <O      LDR      r7,[pc,#240] ; [0x204c] = 0x20000228
        0x00001f5c:    e005        ..      B        0x1f6a ; DrvTIMER_SetTimerEvent + 74
        0x00001f5e:    2514        .%      MOVS     r5,#0x14
        0x00001f60:    4365        eC      MULS     r5,r4,r5
        0x00001f62:    597d        }Y      LDR      r5,[r7,r5]
        0x00001f64:    2d00        .-      CMP      r5,#0
        0x00001f66:    d003        ..      BEQ      0x1f70 ; DrvTIMER_SetTimerEvent + 80
        0x00001f68:    1c64        d.      ADDS     r4,r4,#1
        0x00001f6a:    2c01        .,      CMP      r4,#1
        0x00001f6c:    dbf7        ..      BLT      0x1f5e ; DrvTIMER_SetTimerEvent + 62
        0x00001f6e:    bdf0        ..      POP      {r4-r7,pc}
        0x00001f70:    4620         F      MOV      r0,r4
        0x00001f72:    2514        .%      MOVS     r5,#0x14
        0x00001f74:    4368        hC      MULS     r0,r5,r0
        0x00001f76:    503e        >P      STR      r6,[r7,r0]
        0x00001f78:    19c0        ..      ADDS     r0,r0,r7
        0x00001f7a:    6041        A`      STR      r1,[r0,#4]
        0x00001f7c:    6081        .`      STR      r1,[r0,#8]
        0x00001f7e:    60c2        .`      STR      r2,[r0,#0xc]
        0x00001f80:    6103        .a      STR      r3,[r0,#0x10]
        0x00001f82:    4620         F      MOV      r0,r4
        0x00001f84:    bdf0        ..      POP      {r4-r7,pc}
        0x00001f86:    6c6c        ll      LDR      r4,[r5,#0x44]
        0x00001f88:    2c00        .,      CMP      r4,#0
        0x00001f8a:    d001        ..      BEQ      0x1f90 ; DrvTIMER_SetTimerEvent + 112
        0x00001f8c:    4638        8F      MOV      r0,r7
        0x00001f8e:    bdf0        ..      POP      {r4-r7,pc}
        0x00001f90:    626e        nb      STR      r6,[r5,#0x24]
        0x00001f92:    6c6c        ll      LDR      r4,[r5,#0x44]
        0x00001f94:    1c64        d.      ADDS     r4,r4,#1
        0x00001f96:    646c        ld      STR      r4,[r5,#0x44]
        0x00001f98:    2500        .%      MOVS     r5,#0
        0x00001f9a:    4f2c        ,O      LDR      r7,[pc,#176] ; [0x204c] = 0x20000228
        0x00001f9c:    3714        .7      ADDS     r7,r7,#0x14
        0x00001f9e:    e005        ..      B        0x1fac ; DrvTIMER_SetTimerEvent + 140
        0x00001fa0:    2414        .$      MOVS     r4,#0x14
        0x00001fa2:    436c        lC      MULS     r4,r5,r4
        0x00001fa4:    593c        <Y      LDR      r4,[r7,r4]
        0x00001fa6:    2c00        .,      CMP      r4,#0
        0x00001fa8:    d003        ..      BEQ      0x1fb2 ; DrvTIMER_SetTimerEvent + 146
        0x00001faa:    1c6d        m.      ADDS     r5,r5,#1
        0x00001fac:    2d01        .-      CMP      r5,#1
        0x00001fae:    dbf7        ..      BLT      0x1fa0 ; DrvTIMER_SetTimerEvent + 128
        0x00001fb0:    bdf0        ..      POP      {r4-r7,pc}
        0x00001fb2:    4628        (F      MOV      r0,r5
        0x00001fb4:    2414        .$      MOVS     r4,#0x14
        0x00001fb6:    4360        `C      MULS     r0,r4,r0
        0x00001fb8:    503e        >P      STR      r6,[r7,r0]
        0x00001fba:    19c0        ..      ADDS     r0,r0,r7
        0x00001fbc:    6041        A`      STR      r1,[r0,#4]
        0x00001fbe:    6081        .`      STR      r1,[r0,#8]
        0x00001fc0:    60c2        .`      STR      r2,[r0,#0xc]
        0x00001fc2:    6103        .a      STR      r3,[r0,#0x10]
        0x00001fc4:    4628        (F      MOV      r0,r5
        0x00001fc6:    bdf0        ..      POP      {r4-r7,pc}
        0x00001fc8:    6cac        .l      LDR      r4,[r5,#0x48]
        0x00001fca:    2c00        .,      CMP      r4,#0
        0x00001fcc:    d001        ..      BEQ      0x1fd2 ; DrvTIMER_SetTimerEvent + 178
        0x00001fce:    4638        8F      MOV      r0,r7
        0x00001fd0:    bdf0        ..      POP      {r4-r7,pc}
        0x00001fd2:    62ae        .b      STR      r6,[r5,#0x28]
        0x00001fd4:    6cac        .l      LDR      r4,[r5,#0x48]
        0x00001fd6:    1c64        d.      ADDS     r4,r4,#1
        0x00001fd8:    64ac        .d      STR      r4,[r5,#0x48]
        0x00001fda:    2400        .$      MOVS     r4,#0
        0x00001fdc:    4f1b        .O      LDR      r7,[pc,#108] ; [0x204c] = 0x20000228
        0x00001fde:    3728        (7      ADDS     r7,r7,#0x28
        0x00001fe0:    e005        ..      B        0x1fee ; DrvTIMER_SetTimerEvent + 206
        0x00001fe2:    2514        .%      MOVS     r5,#0x14
        0x00001fe4:    4365        eC      MULS     r5,r4,r5
        0x00001fe6:    597d        }Y      LDR      r5,[r7,r5]
        0x00001fe8:    2d00        .-      CMP      r5,#0
        0x00001fea:    d003        ..      BEQ      0x1ff4 ; DrvTIMER_SetTimerEvent + 212
        0x00001fec:    1c64        d.      ADDS     r4,r4,#1
        0x00001fee:    2c01        .,      CMP      r4,#1
        0x00001ff0:    dbf7        ..      BLT      0x1fe2 ; DrvTIMER_SetTimerEvent + 194
        0x00001ff2:    bdf0        ..      POP      {r4-r7,pc}
        0x00001ff4:    4620         F      MOV      r0,r4
        0x00001ff6:    2514        .%      MOVS     r5,#0x14
        0x00001ff8:    4368        hC      MULS     r0,r5,r0
        0x00001ffa:    503e        >P      STR      r6,[r7,r0]
        0x00001ffc:    19c0        ..      ADDS     r0,r0,r7
        0x00001ffe:    6041        A`      STR      r1,[r0,#4]
        0x00002000:    6081        .`      STR      r1,[r0,#8]
        0x00002002:    60c2        .`      STR      r2,[r0,#0xc]
        0x00002004:    6103        .a      STR      r3,[r0,#0x10]
        0x00002006:    4620         F      MOV      r0,r4
        0x00002008:    bdf0        ..      POP      {r4-r7,pc}
        0x0000200a:    62ee        .b      STR      r6,[r5,#0x2c]
        0x0000200c:    6cec        .l      LDR      r4,[r5,#0x4c]
        0x0000200e:    1c64        d.      ADDS     r4,r4,#1
        0x00002010:    64ec        .d      STR      r4,[r5,#0x4c]
        0x00002012:    2400        .$      MOVS     r4,#0
        0x00002014:    4f0d        .O      LDR      r7,[pc,#52] ; [0x204c] = 0x20000228
        0x00002016:    373c        <7      ADDS     r7,r7,#0x3c
        0x00002018:    e005        ..      B        0x2026 ; DrvTIMER_SetTimerEvent + 262
        0x0000201a:    2514        .%      MOVS     r5,#0x14
        0x0000201c:    4365        eC      MULS     r5,r4,r5
        0x0000201e:    597d        }Y      LDR      r5,[r7,r5]
        0x00002020:    2d00        .-      CMP      r5,#0
        0x00002022:    d003        ..      BEQ      0x202c ; DrvTIMER_SetTimerEvent + 268
        0x00002024:    1c64        d.      ADDS     r4,r4,#1
        0x00002026:    2c01        .,      CMP      r4,#1
        0x00002028:    dbf7        ..      BLT      0x201a ; DrvTIMER_SetTimerEvent + 250
        0x0000202a:    bdf0        ..      POP      {r4-r7,pc}
        0x0000202c:    4620         F      MOV      r0,r4
        0x0000202e:    2514        .%      MOVS     r5,#0x14
        0x00002030:    4368        hC      MULS     r0,r5,r0
        0x00002032:    503e        >P      STR      r6,[r7,r0]
        0x00002034:    19c0        ..      ADDS     r0,r0,r7
        0x00002036:    6041        A`      STR      r1,[r0,#4]
        0x00002038:    6081        .`      STR      r1,[r0,#8]
        0x0000203a:    60c2        .`      STR      r2,[r0,#0xc]
        0x0000203c:    6103        .a      STR      r3,[r0,#0x10]
        0x0000203e:    4620         F      MOV      r0,r4
        0x00002040:    bdf0        ..      POP      {r4-r7,pc}
    $d
        0x00002042:    0000        ..      DCW    0
        0x00002044:    ffff9704    ....    DCD    4294940420
        0x00002048:    20000060    `..     DCD    536871008
        0x0000204c:    20000228    (..     DCD    536871464
    $t
    i.DrvTIMER_Start
    DrvTIMER_Start
        0x00002050:    4a0e        .J      LDR      r2,[pc,#56] ; [0x208c] = 0x40010000
        0x00002052:    0391        ..      LSLS     r1,r2,#14
        0x00002054:    2800        .(      CMP      r0,#0
        0x00002056:    d008        ..      BEQ      0x206a ; DrvTIMER_Start + 26
        0x00002058:    2801        .(      CMP      r0,#1
        0x0000205a:    d00a        ..      BEQ      0x2072 ; DrvTIMER_Start + 34
        0x0000205c:    4a0c        .J      LDR      r2,[pc,#48] ; [0x2090] = 0x40110000
        0x0000205e:    2802        .(      CMP      r0,#2
        0x00002060:    d00b        ..      BEQ      0x207a ; DrvTIMER_Start + 42
        0x00002062:    2803        .(      CMP      r0,#3
        0x00002064:    d00d        ..      BEQ      0x2082 ; DrvTIMER_Start + 50
        0x00002066:    480b        .H      LDR      r0,[pc,#44] ; [0x2094] = 0xffff9701
        0x00002068:    4770        pG      BX       lr
        0x0000206a:    6810        .h      LDR      r0,[r2,#0]
        0x0000206c:    4308        .C      ORRS     r0,r0,r1
        0x0000206e:    6010        .`      STR      r0,[r2,#0]
        0x00002070:    e00a        ..      B        0x2088 ; DrvTIMER_Start + 56
        0x00002072:    6a10        .j      LDR      r0,[r2,#0x20]
        0x00002074:    4308        .C      ORRS     r0,r0,r1
        0x00002076:    6210        .b      STR      r0,[r2,#0x20]
        0x00002078:    e006        ..      B        0x2088 ; DrvTIMER_Start + 56
        0x0000207a:    6810        .h      LDR      r0,[r2,#0]
        0x0000207c:    4308        .C      ORRS     r0,r0,r1
        0x0000207e:    6010        .`      STR      r0,[r2,#0]
        0x00002080:    e002        ..      B        0x2088 ; DrvTIMER_Start + 56
        0x00002082:    6a10        .j      LDR      r0,[r2,#0x20]
        0x00002084:    4308        .C      ORRS     r0,r0,r1
        0x00002086:    6210        .b      STR      r0,[r2,#0x20]
        0x00002088:    2000        .       MOVS     r0,#0
        0x0000208a:    4770        pG      BX       lr
    $d
        0x0000208c:    40010000    ...@    DCD    1073807360
        0x00002090:    40110000    ...@    DCD    1074855936
        0x00002094:    ffff9701    ....    DCD    4294940417
    $t
    i.DrvUART_EnableInt
    DrvUART_EnableInt
        0x00002098:    b570        p.      PUSH     {r4-r6,lr}
        0x0000209a:    4b32        2K      LDR      r3,[pc,#200] ; [0x2164] = 0x40050000
        0x0000209c:    18c3        ..      ADDS     r3,r0,r3
        0x0000209e:    685c        \h      LDR      r4,[r3,#4]
        0x000020a0:    07cd        ..      LSLS     r5,r1,#31
        0x000020a2:    0864        d.      LSRS     r4,r4,#1
        0x000020a4:    0064        d.      LSLS     r4,r4,#1
        0x000020a6:    0fed        ..      LSRS     r5,r5,#31
        0x000020a8:    432c        ,C      ORRS     r4,r4,r5
        0x000020aa:    605c        \`      STR      r4,[r3,#4]
        0x000020ac:    078c        ..      LSLS     r4,r1,#30
        0x000020ae:    2502        .%      MOVS     r5,#2
        0x000020b0:    2c00        .,      CMP      r4,#0
        0x000020b2:    da02        ..      BGE      0x20ba ; DrvUART_EnableInt + 34
        0x000020b4:    685c        \h      LDR      r4,[r3,#4]
        0x000020b6:    432c        ,C      ORRS     r4,r4,r5
        0x000020b8:    e001        ..      B        0x20be ; DrvUART_EnableInt + 38
        0x000020ba:    685c        \h      LDR      r4,[r3,#4]
        0x000020bc:    43ac        .C      BICS     r4,r4,r5
        0x000020be:    605c        \`      STR      r4,[r3,#4]
        0x000020c0:    074c        L.      LSLS     r4,r1,#29
        0x000020c2:    2504        .%      MOVS     r5,#4
        0x000020c4:    2c00        .,      CMP      r4,#0
        0x000020c6:    da02        ..      BGE      0x20ce ; DrvUART_EnableInt + 54
        0x000020c8:    685c        \h      LDR      r4,[r3,#4]
        0x000020ca:    432c        ,C      ORRS     r4,r4,r5
        0x000020cc:    e001        ..      B        0x20d2 ; DrvUART_EnableInt + 58
        0x000020ce:    685c        \h      LDR      r4,[r3,#4]
        0x000020d0:    43ac        .C      BICS     r4,r4,r5
        0x000020d2:    605c        \`      STR      r4,[r3,#4]
        0x000020d4:    070c        ..      LSLS     r4,r1,#28
        0x000020d6:    2508        .%      MOVS     r5,#8
        0x000020d8:    2c00        .,      CMP      r4,#0
        0x000020da:    da02        ..      BGE      0x20e2 ; DrvUART_EnableInt + 74
        0x000020dc:    685c        \h      LDR      r4,[r3,#4]
        0x000020de:    432c        ,C      ORRS     r4,r4,r5
        0x000020e0:    e001        ..      B        0x20e6 ; DrvUART_EnableInt + 78
        0x000020e2:    685c        \h      LDR      r4,[r3,#4]
        0x000020e4:    43ac        .C      BICS     r4,r4,r5
        0x000020e6:    605c        \`      STR      r4,[r3,#4]
        0x000020e8:    4d1f        .M      LDR      r5,[pc,#124] ; [0x2168] = 0x800
        0x000020ea:    06cc        ..      LSLS     r4,r1,#27
        0x000020ec:    d502        ..      BPL      0x20f4 ; DrvUART_EnableInt + 92
        0x000020ee:    685c        \h      LDR      r4,[r3,#4]
        0x000020f0:    432c        ,C      ORRS     r4,r4,r5
        0x000020f2:    e001        ..      B        0x20f8 ; DrvUART_EnableInt + 96
        0x000020f4:    685c        \h      LDR      r4,[r3,#4]
        0x000020f6:    43ac        .C      BICS     r4,r4,r5
        0x000020f8:    605c        \`      STR      r4,[r3,#4]
        0x000020fa:    06cc        ..      LSLS     r4,r1,#27
        0x000020fc:    2510        .%      MOVS     r5,#0x10
        0x000020fe:    2c00        .,      CMP      r4,#0
        0x00002100:    da02        ..      BGE      0x2108 ; DrvUART_EnableInt + 112
        0x00002102:    685c        \h      LDR      r4,[r3,#4]
        0x00002104:    432c        ,C      ORRS     r4,r4,r5
        0x00002106:    e001        ..      B        0x210c ; DrvUART_EnableInt + 116
        0x00002108:    685c        \h      LDR      r4,[r3,#4]
        0x0000210a:    43ac        .C      BICS     r4,r4,r5
        0x0000210c:    605c        \`      STR      r4,[r3,#4]
        0x0000210e:    068c        ..      LSLS     r4,r1,#26
        0x00002110:    2520         %      MOVS     r5,#0x20
        0x00002112:    2c00        .,      CMP      r4,#0
        0x00002114:    da02        ..      BGE      0x211c ; DrvUART_EnableInt + 132
        0x00002116:    685c        \h      LDR      r4,[r3,#4]
        0x00002118:    432c        ,C      ORRS     r4,r4,r5
        0x0000211a:    e001        ..      B        0x2120 ; DrvUART_EnableInt + 136
        0x0000211c:    685c        \h      LDR      r4,[r3,#4]
        0x0000211e:    43ac        .C      BICS     r4,r4,r5
        0x00002120:    605c        \`      STR      r4,[r3,#4]
        0x00002122:    0649        I.      LSLS     r1,r1,#25
        0x00002124:    2440        @$      MOVS     r4,#0x40
        0x00002126:    2900        .)      CMP      r1,#0
        0x00002128:    da02        ..      BGE      0x2130 ; DrvUART_EnableInt + 152
        0x0000212a:    6859        Yh      LDR      r1,[r3,#4]
        0x0000212c:    4321        !C      ORRS     r1,r1,r4
        0x0000212e:    e001        ..      B        0x2134 ; DrvUART_EnableInt + 156
        0x00002130:    6859        Yh      LDR      r1,[r3,#4]
        0x00002132:    43a1        .C      BICS     r1,r1,r4
        0x00002134:    6059        Y`      STR      r1,[r3,#4]
        0x00002136:    490d        .I      LDR      r1,[pc,#52] ; [0x216c] = 0x200000c8
        0x00002138:    4c0d        .L      LDR      r4,[pc,#52] ; [0x2170] = 0xe000e100
        0x0000213a:    2800        .(      CMP      r0,#0
        0x0000213c:    d008        ..      BEQ      0x2150 ; DrvUART_EnableInt + 184
        0x0000213e:    604a        J`      STR      r2,[r1,#4]
        0x00002140:    2102        .!      MOVS     r1,#2
        0x00002142:    200d        .       MOVS     r0,#0xd
        0x00002144:    f000fae6    ....    BL       NVIC_SetPriority ; 0x2714
        0x00002148:    2001        .       MOVS     r0,#1
        0x0000214a:    0340        @.      LSLS     r0,r0,#13
        0x0000214c:    6020         `      STR      r0,[r4,#0]
        0x0000214e:    bd70        p.      POP      {r4-r6,pc}
        0x00002150:    600a        .`      STR      r2,[r1,#0]
        0x00002152:    2102        .!      MOVS     r1,#2
        0x00002154:    200c        .       MOVS     r0,#0xc
        0x00002156:    f000fadd    ....    BL       NVIC_SetPriority ; 0x2714
        0x0000215a:    2001        .       MOVS     r0,#1
        0x0000215c:    0300        ..      LSLS     r0,r0,#12
        0x0000215e:    6020         `      STR      r0,[r4,#0]
        0x00002160:    bd70        p.      POP      {r4-r6,pc}
    $d
        0x00002162:    0000        ..      DCW    0
        0x00002164:    40050000    ...@    DCD    1074069504
        0x00002168:    00000800    ....    DCD    2048
        0x0000216c:    200000c8    ...     DCD    536871112
        0x00002170:    e000e100    ....    DCD    3758153984
    $t
    i.DrvUART_Open
    DrvUART_Open
        0x00002174:    b570        p.      PUSH     {r4-r6,lr}
        0x00002176:    460d        .F      MOV      r5,r1
        0x00002178:    2800        .(      CMP      r0,#0
        0x0000217a:    d005        ..      BEQ      0x2188 ; DrvUART_Open + 20
        0x0000217c:    2101        .!      MOVS     r1,#1
        0x0000217e:    0509        ..      LSLS     r1,r1,#20
        0x00002180:    4288        .B      CMP      r0,r1
        0x00002182:    d001        ..      BEQ      0x2188 ; DrvUART_Open + 20
        0x00002184:    4850        PH      LDR      r0,[pc,#320] ; [0x22c8] = 0xffff9802
        0x00002186:    bd70        p.      POP      {r4-r6,pc}
        0x00002188:    79a9        .y      LDRB     r1,[r5,#6]
        0x0000218a:    2900        .)      CMP      r1,#0
        0x0000218c:    d00a        ..      BEQ      0x21a4 ; DrvUART_Open + 48
        0x0000218e:    2903        .)      CMP      r1,#3
        0x00002190:    d008        ..      BEQ      0x21a4 ; DrvUART_Open + 48
        0x00002192:    2901        .)      CMP      r1,#1
        0x00002194:    d006        ..      BEQ      0x21a4 ; DrvUART_Open + 48
        0x00002196:    2905        .)      CMP      r1,#5
        0x00002198:    d004        ..      BEQ      0x21a4 ; DrvUART_Open + 48
        0x0000219a:    2907        .)      CMP      r1,#7
        0x0000219c:    d002        ..      BEQ      0x21a4 ; DrvUART_Open + 48
        0x0000219e:    484a        JH      LDR      r0,[pc,#296] ; [0x22c8] = 0xffff9802
        0x000021a0:    1c40        @.      ADDS     r0,r0,#1
        0x000021a2:    bd70        p.      POP      {r4-r6,pc}
        0x000021a4:    7929        )y      LDRB     r1,[r5,#4]
        0x000021a6:    2900        .)      CMP      r1,#0
        0x000021a8:    d008        ..      BEQ      0x21bc ; DrvUART_Open + 72
        0x000021aa:    2901        .)      CMP      r1,#1
        0x000021ac:    d006        ..      BEQ      0x21bc ; DrvUART_Open + 72
        0x000021ae:    2902        .)      CMP      r1,#2
        0x000021b0:    d004        ..      BEQ      0x21bc ; DrvUART_Open + 72
        0x000021b2:    2903        .)      CMP      r1,#3
        0x000021b4:    d002        ..      BEQ      0x21bc ; DrvUART_Open + 72
        0x000021b6:    4844        DH      LDR      r0,[pc,#272] ; [0x22c8] = 0xffff9802
        0x000021b8:    1c80        ..      ADDS     r0,r0,#2
        0x000021ba:    bd70        p.      POP      {r4-r6,pc}
        0x000021bc:    7969        iy      LDRB     r1,[r5,#5]
        0x000021be:    2900        .)      CMP      r1,#0
        0x000021c0:    d004        ..      BEQ      0x21cc ; DrvUART_Open + 88
        0x000021c2:    2901        .)      CMP      r1,#1
        0x000021c4:    d002        ..      BEQ      0x21cc ; DrvUART_Open + 88
        0x000021c6:    4840        @H      LDR      r0,[pc,#256] ; [0x22c8] = 0xffff9802
        0x000021c8:    1cc0        ..      ADDS     r0,r0,#3
        0x000021ca:    bd70        p.      POP      {r4-r6,pc}
        0x000021cc:    79e9        .y      LDRB     r1,[r5,#7]
        0x000021ce:    2900        .)      CMP      r1,#0
        0x000021d0:    d00e        ..      BEQ      0x21f0 ; DrvUART_Open + 124
        0x000021d2:    2901        .)      CMP      r1,#1
        0x000021d4:    d00c        ..      BEQ      0x21f0 ; DrvUART_Open + 124
        0x000021d6:    2902        .)      CMP      r1,#2
        0x000021d8:    d00a        ..      BEQ      0x21f0 ; DrvUART_Open + 124
        0x000021da:    2903        .)      CMP      r1,#3
        0x000021dc:    d008        ..      BEQ      0x21f0 ; DrvUART_Open + 124
        0x000021de:    2904        .)      CMP      r1,#4
        0x000021e0:    d006        ..      BEQ      0x21f0 ; DrvUART_Open + 124
        0x000021e2:    2905        .)      CMP      r1,#5
        0x000021e4:    d004        ..      BEQ      0x21f0 ; DrvUART_Open + 124
        0x000021e6:    2906        .)      CMP      r1,#6
        0x000021e8:    d002        ..      BEQ      0x21f0 ; DrvUART_Open + 124
        0x000021ea:    4837        7H      LDR      r0,[pc,#220] ; [0x22c8] = 0xffff9802
        0x000021ec:    1d00        ..      ADDS     r0,r0,#4
        0x000021ee:    bd70        p.      POP      {r4-r6,pc}
        0x000021f0:    2105        .!      MOVS     r1,#5
        0x000021f2:    0709        ..      LSLS     r1,r1,#28
        0x000021f4:    4b35        5K      LDR      r3,[pc,#212] ; [0x22cc] = 0x50000200
        0x000021f6:    2800        .(      CMP      r0,#0
        0x000021f8:    d023        #.      BEQ      0x2242 ; DrvUART_Open + 206
        0x000021fa:    68cc        .h      LDR      r4,[r1,#0xc]
        0x000021fc:    021a        ..      LSLS     r2,r3,#8
        0x000021fe:    4314        .C      ORRS     r4,r4,r2
        0x00002200:    60cc        .`      STR      r4,[r1,#0xc]
        0x00002202:    68cc        .h      LDR      r4,[r1,#0xc]
        0x00002204:    4394        .C      BICS     r4,r4,r2
        0x00002206:    60cc        .`      STR      r4,[r1,#0xc]
        0x00002208:    6899        .h      LDR      r1,[r3,#8]
        0x0000220a:    4311        .C      ORRS     r1,r1,r2
        0x0000220c:    6099        .`      STR      r1,[r3,#8]
        0x0000220e:    4930        0I      LDR      r1,[pc,#192] ; [0x22d0] = 0x40050000
        0x00002210:    1844        D.      ADDS     r4,r0,r1
        0x00002212:    68a0        .h      LDR      r0,[r4,#8]
        0x00002214:    2204        ."      MOVS     r2,#4
        0x00002216:    4310        .C      ORRS     r0,r0,r2
        0x00002218:    60a0        .`      STR      r0,[r4,#8]
        0x0000221a:    68a0        .h      LDR      r0,[r4,#8]
        0x0000221c:    2102        .!      MOVS     r1,#2
        0x0000221e:    4308        .C      ORRS     r0,r0,r1
        0x00002220:    60a0        .`      STR      r0,[r4,#8]
        0x00002222:    68a0        .h      LDR      r0,[r4,#8]
        0x00002224:    21f0        .!      MOVS     r1,#0xf0
        0x00002226:    4388        .C      BICS     r0,r0,r1
        0x00002228:    79e9        .y      LDRB     r1,[r5,#7]
        0x0000222a:    0709        ..      LSLS     r1,r1,#28
        0x0000222c:    0e09        ..      LSRS     r1,r1,#24
        0x0000222e:    4308        .C      ORRS     r0,r0,r1
        0x00002230:    60a0        .`      STR      r0,[r4,#8]
        0x00002232:    79a8        .y      LDRB     r0,[r5,#6]
        0x00002234:    2120         !      MOVS     r1,#0x20
        0x00002236:    0740        @.      LSLS     r0,r0,#29
        0x00002238:    2800        .(      CMP      r0,#0
        0x0000223a:    da0e        ..      BGE      0x225a ; DrvUART_Open + 230
        0x0000223c:    68e0        .h      LDR      r0,[r4,#0xc]
        0x0000223e:    4308        .C      ORRS     r0,r0,r1
        0x00002240:    e00d        ..      B        0x225e ; DrvUART_Open + 234
        0x00002242:    68cc        .h      LDR      r4,[r1,#0xc]
        0x00002244:    2201        ."      MOVS     r2,#1
        0x00002246:    0412        ..      LSLS     r2,r2,#16
        0x00002248:    4314        .C      ORRS     r4,r4,r2
        0x0000224a:    60cc        .`      STR      r4,[r1,#0xc]
        0x0000224c:    68cc        .h      LDR      r4,[r1,#0xc]
        0x0000224e:    4394        .C      BICS     r4,r4,r2
        0x00002250:    60cc        .`      STR      r4,[r1,#0xc]
        0x00002252:    6899        .h      LDR      r1,[r3,#8]
        0x00002254:    4311        .C      ORRS     r1,r1,r2
        0x00002256:    6099        .`      STR      r1,[r3,#8]
        0x00002258:    e7d9        ..      B        0x220e ; DrvUART_Open + 154
        0x0000225a:    68e0        .h      LDR      r0,[r4,#0xc]
        0x0000225c:    4388        .C      BICS     r0,r0,r1
        0x0000225e:    60e0        .`      STR      r0,[r4,#0xc]
        0x00002260:    79a8        .y      LDRB     r0,[r5,#6]
        0x00002262:    2110        .!      MOVS     r1,#0x10
        0x00002264:    0780        ..      LSLS     r0,r0,#30
        0x00002266:    2800        .(      CMP      r0,#0
        0x00002268:    da02        ..      BGE      0x2270 ; DrvUART_Open + 252
        0x0000226a:    68e0        .h      LDR      r0,[r4,#0xc]
        0x0000226c:    4308        .C      ORRS     r0,r0,r1
        0x0000226e:    e001        ..      B        0x2274 ; DrvUART_Open + 256
        0x00002270:    68e0        .h      LDR      r0,[r4,#0xc]
        0x00002272:    4388        .C      BICS     r0,r0,r1
        0x00002274:    60e0        .`      STR      r0,[r4,#0xc]
        0x00002276:    68e0        .h      LDR      r0,[r4,#0xc]
        0x00002278:    2108        .!      MOVS     r1,#8
        0x0000227a:    4388        .C      BICS     r0,r0,r1
        0x0000227c:    79a9        .y      LDRB     r1,[r5,#6]
        0x0000227e:    07c9        ..      LSLS     r1,r1,#31
        0x00002280:    0f09        ..      LSRS     r1,r1,#28
        0x00002282:    4308        .C      ORRS     r0,r0,r1
        0x00002284:    60e0        .`      STR      r0,[r4,#0xc]
        0x00002286:    68e0        .h      LDR      r0,[r4,#0xc]
        0x00002288:    7929        )y      LDRB     r1,[r5,#4]
        0x0000228a:    0880        ..      LSRS     r0,r0,#2
        0x0000228c:    0080        ..      LSLS     r0,r0,#2
        0x0000228e:    0789        ..      LSLS     r1,r1,#30
        0x00002290:    0f89        ..      LSRS     r1,r1,#30
        0x00002292:    4308        .C      ORRS     r0,r0,r1
        0x00002294:    60e0        .`      STR      r0,[r4,#0xc]
        0x00002296:    68e0        .h      LDR      r0,[r4,#0xc]
        0x00002298:    7969        iy      LDRB     r1,[r5,#5]
        0x0000229a:    4390        .C      BICS     r0,r0,r2
        0x0000229c:    07c9        ..      LSLS     r1,r1,#31
        0x0000229e:    0f49        I.      LSRS     r1,r1,#29
        0x000022a0:    4308        .C      ORRS     r0,r0,r1
        0x000022a2:    60e0        .`      STR      r0,[r4,#0xc]
        0x000022a4:    6a20         j      LDR      r0,[r4,#0x20]
        0x000022a6:    7a29        )z      LDRB     r1,[r5,#8]
        0x000022a8:    09c0        ..      LSRS     r0,r0,#7
        0x000022aa:    0649        I.      LSLS     r1,r1,#25
        0x000022ac:    01c0        ..      LSLS     r0,r0,#7
        0x000022ae:    0e49        I.      LSRS     r1,r1,#25
        0x000022b0:    4308        .C      ORRS     r0,r0,r1
        0x000022b2:    6220         b      STR      r0,[r4,#0x20]
        0x000022b4:    f000f982    ....    BL       GetUartClock ; 0x25bc
        0x000022b8:    4622        "F      MOV      r2,r4
        0x000022ba:    3224        $2      ADDS     r2,r2,#0x24
        0x000022bc:    6829        )h      LDR      r1,[r5,#0]
        0x000022be:    f7fff9d1    ....    BL       BaudRateCalculator ; 0x1664
        0x000022c2:    2000        .       MOVS     r0,#0
        0x000022c4:    bd70        p.      POP      {r4-r6,pc}
    $d
        0x000022c6:    0000        ..      DCW    0
        0x000022c8:    ffff9802    ....    DCD    4294940674
        0x000022cc:    50000200    ...P    DCD    1342177792
        0x000022d0:    40050000    ...@    DCD    1074069504
    $t
    i.DrvUART_Read
    DrvUART_Read
        0x000022d4:    b570        p.      PUSH     {r4-r6,lr}
        0x000022d6:    4b0b        .K      LDR      r3,[pc,#44] ; [0x2304] = 0x40050000
        0x000022d8:    18c4        ..      ADDS     r4,r0,r3
        0x000022da:    2300        .#      MOVS     r3,#0
        0x000022dc:    2501        .%      MOVS     r5,#1
        0x000022de:    05ad        ..      LSLS     r5,r5,#22
        0x000022e0:    e00c        ..      B        0x22fc ; DrvUART_Read + 40
        0x000022e2:    2000        .       MOVS     r0,#0
        0x000022e4:    e004        ..      B        0x22f0 ; DrvUART_Read + 28
        0x000022e6:    1c40        @.      ADDS     r0,r0,#1
        0x000022e8:    42a8        .B      CMP      r0,r5
        0x000022ea:    d301        ..      BCC      0x22f0 ; DrvUART_Read + 28
        0x000022ec:    4806        .H      LDR      r0,[pc,#24] ; [0x2308] = 0xffff9801
        0x000022ee:    bd70        p.      POP      {r4-r6,pc}
        0x000022f0:    69a6        .i      LDR      r6,[r4,#0x18]
        0x000022f2:    0476        v.      LSLS     r6,r6,#17
        0x000022f4:    d4f7        ..      BMI      0x22e6 ; DrvUART_Read + 18
        0x000022f6:    6820         h      LDR      r0,[r4,#0]
        0x000022f8:    54c8        .T      STRB     r0,[r1,r3]
        0x000022fa:    1c5b        [.      ADDS     r3,r3,#1
        0x000022fc:    4293        .B      CMP      r3,r2
        0x000022fe:    d3f0        ..      BCC      0x22e2 ; DrvUART_Read + 14
        0x00002300:    2000        .       MOVS     r0,#0
        0x00002302:    bd70        p.      POP      {r4-r6,pc}
    $d
        0x00002304:    40050000    ...@    DCD    1074069504
        0x00002308:    ffff9801    ....    DCD    4294940673
    $t
    i.DrvUART_SetFnRS485
    DrvUART_SetFnRS485
        0x0000230c:    b530        0.      PUSH     {r4,r5,lr}
        0x0000230e:    4a24        $J      LDR      r2,[pc,#144] ; [0x23a0] = 0x40050000
        0x00002310:    1880        ..      ADDS     r0,r0,r2
        0x00002312:    6b02        .k      LDR      r2,[r0,#0x30]
        0x00002314:    2303        .#      MOVS     r3,#3
        0x00002316:    431a        .C      ORRS     r2,r2,r3
        0x00002318:    6302        .c      STR      r2,[r0,#0x30]
        0x0000231a:    784a        Jx      LDRB     r2,[r1,#1]
        0x0000231c:    2301        .#      MOVS     r3,#1
        0x0000231e:    03db        ..      LSLS     r3,r3,#15
        0x00002320:    2a00        .*      CMP      r2,#0
        0x00002322:    d002        ..      BEQ      0x232a ; DrvUART_SetFnRS485 + 30
        0x00002324:    6ac2        .j      LDR      r2,[r0,#0x2c]
        0x00002326:    431a        .C      ORRS     r2,r2,r3
        0x00002328:    e001        ..      B        0x232e ; DrvUART_SetFnRS485 + 34
        0x0000232a:    6ac2        .j      LDR      r2,[r0,#0x2c]
        0x0000232c:    439a        .C      BICS     r2,r2,r3
        0x0000232e:    62c2        .b      STR      r2,[r0,#0x2c]
        0x00002330:    6ac2        .j      LDR      r2,[r0,#0x2c]
        0x00002332:    788b        .x      LDRB     r3,[r1,#2]
        0x00002334:    0212        ..      LSLS     r2,r2,#8
        0x00002336:    0a12        ..      LSRS     r2,r2,#8
        0x00002338:    061b        ..      LSLS     r3,r3,#24
        0x0000233a:    431a        .C      ORRS     r2,r2,r3
        0x0000233c:    62c2        .b      STR      r2,[r0,#0x2c]
        0x0000233e:    6ac2        .j      LDR      r2,[r0,#0x2c]
        0x00002340:    25ff        .%      MOVS     r5,#0xff
        0x00002342:    780b        .x      LDRB     r3,[r1,#0]
        0x00002344:    3501        .5      ADDS     r5,#1
        0x00002346:    07db        ..      LSLS     r3,r3,#31
        0x00002348:    43aa        .C      BICS     r2,r2,r5
        0x0000234a:    0ddb        ..      LSRS     r3,r3,#23
        0x0000234c:    431a        .C      ORRS     r2,r2,r3
        0x0000234e:    62c2        .b      STR      r2,[r0,#0x2c]
        0x00002350:    780a        .x      LDRB     r2,[r1,#0]
        0x00002352:    4b14        .K      LDR      r3,[pc,#80] ; [0x23a4] = 0x200
        0x00002354:    0792        ..      LSLS     r2,r2,#30
        0x00002356:    d502        ..      BPL      0x235e ; DrvUART_SetFnRS485 + 82
        0x00002358:    6ac2        .j      LDR      r2,[r0,#0x2c]
        0x0000235a:    431a        .C      ORRS     r2,r2,r3
        0x0000235c:    e001        ..      B        0x2362 ; DrvUART_SetFnRS485 + 86
        0x0000235e:    6ac2        .j      LDR      r2,[r0,#0x2c]
        0x00002360:    439a        .C      BICS     r2,r2,r3
        0x00002362:    62c2        .b      STR      r2,[r0,#0x2c]
        0x00002364:    780a        .x      LDRB     r2,[r1,#0]
        0x00002366:    4c10        .L      LDR      r4,[pc,#64] ; [0x23a8] = 0x400
        0x00002368:    0752        R.      LSLS     r2,r2,#29
        0x0000236a:    d502        ..      BPL      0x2372 ; DrvUART_SetFnRS485 + 102
        0x0000236c:    6ac2        .j      LDR      r2,[r0,#0x2c]
        0x0000236e:    4322        "C      ORRS     r2,r2,r4
        0x00002370:    e001        ..      B        0x2376 ; DrvUART_SetFnRS485 + 106
        0x00002372:    6ac2        .j      LDR      r2,[r0,#0x2c]
        0x00002374:    43a2        .C      BICS     r2,r2,r4
        0x00002376:    62c2        .b      STR      r2,[r0,#0x2c]
        0x00002378:    6a02        .j      LDR      r2,[r0,#0x20]
        0x0000237a:    24ff        .$      MOVS     r4,#0xff
        0x0000237c:    0224        $.      LSLS     r4,r4,#8
        0x0000237e:    43a2        .C      BICS     r2,r2,r4
        0x00002380:    78cc        .x      LDRB     r4,[r1,#3]
        0x00002382:    0224        $.      LSLS     r4,r4,#8
        0x00002384:    4322        "C      ORRS     r2,r2,r4
        0x00002386:    6202        .b      STR      r2,[r0,#0x20]
        0x00002388:    6882        .h      LDR      r2,[r0,#8]
        0x0000238a:    7909        .y      LDRB     r1,[r1,#4]
        0x0000238c:    43aa        .C      BICS     r2,r2,r5
        0x0000238e:    07c9        ..      LSLS     r1,r1,#31
        0x00002390:    0dc9        ..      LSRS     r1,r1,#23
        0x00002392:    430a        .C      ORRS     r2,r2,r1
        0x00002394:    6082        .`      STR      r2,[r0,#8]
        0x00002396:    6901        .i      LDR      r1,[r0,#0x10]
        0x00002398:    4399        .C      BICS     r1,r1,r3
        0x0000239a:    6101        .a      STR      r1,[r0,#0x10]
        0x0000239c:    bd30        0.      POP      {r4,r5,pc}
    $d
        0x0000239e:    0000        ..      DCW    0
        0x000023a0:    40050000    ...@    DCD    1074069504
        0x000023a4:    00000200    ....    DCD    512
        0x000023a8:    00000400    ....    DCD    1024
    $t
    i.DrvUART_Write
    DrvUART_Write
        0x000023ac:    b570        p.      PUSH     {r4-r6,lr}
        0x000023ae:    4b0b        .K      LDR      r3,[pc,#44] ; [0x23dc] = 0x40050000
        0x000023b0:    18c4        ..      ADDS     r4,r0,r3
        0x000023b2:    2300        .#      MOVS     r3,#0
        0x000023b4:    2501        .%      MOVS     r5,#1
        0x000023b6:    05ad        ..      LSLS     r5,r5,#22
        0x000023b8:    e00c        ..      B        0x23d4 ; DrvUART_Write + 40
        0x000023ba:    2000        .       MOVS     r0,#0
        0x000023bc:    e004        ..      B        0x23c8 ; DrvUART_Write + 28
        0x000023be:    1c40        @.      ADDS     r0,r0,#1
        0x000023c0:    42a8        .B      CMP      r0,r5
        0x000023c2:    d301        ..      BCC      0x23c8 ; DrvUART_Write + 28
        0x000023c4:    4806        .H      LDR      r0,[pc,#24] ; [0x23e0] = 0xffff9801
        0x000023c6:    bd70        p.      POP      {r4-r6,pc}
        0x000023c8:    69a6        .i      LDR      r6,[r4,#0x18]
        0x000023ca:    00f6        ..      LSLS     r6,r6,#3
        0x000023cc:    d5f7        ..      BPL      0x23be ; DrvUART_Write + 18
        0x000023ce:    5cc8        .\      LDRB     r0,[r1,r3]
        0x000023d0:    6020         `      STR      r0,[r4,#0]
        0x000023d2:    1c5b        [.      ADDS     r3,r3,#1
        0x000023d4:    4293        .B      CMP      r3,r2
        0x000023d6:    d3f0        ..      BCC      0x23ba ; DrvUART_Write + 14
        0x000023d8:    2000        .       MOVS     r0,#0
        0x000023da:    bd70        p.      POP      {r4-r6,pc}
    $d
        0x000023dc:    40050000    ...@    DCD    1074069504
        0x000023e0:    ffff9801    ....    DCD    4294940673
    $t
    i.EINT0_IRQHandler
    EINT0_IRQHandler
        0x000023e4:    4904        .I      LDR      r1,[pc,#16] ; [0x23f8] = 0x500040c0
        0x000023e6:    2004        .       MOVS     r0,#4
        0x000023e8:    6208        .b      STR      r0,[r1,#0x20]
        0x000023ea:    4804        .H      LDR      r0,[pc,#16] ; [0x23fc] = 0x20000048
        0x000023ec:    6880        .h      LDR      r0,[r0,#8]
        0x000023ee:    2800        .(      CMP      r0,#0
        0x000023f0:    d000        ..      BEQ      0x23f4 ; EINT0_IRQHandler + 16
        0x000023f2:    4700        .G      BX       r0
        0x000023f4:    4770        pG      BX       lr
    $d
        0x000023f6:    0000        ..      DCW    0
        0x000023f8:    500040c0    .@.P    DCD    1342193856
        0x000023fc:    20000048    H..     DCD    536870984
    $t
    i.EINT1_IRQHandler
    EINT1_IRQHandler
        0x00002400:    4904        .I      LDR      r1,[pc,#16] ; [0x2414] = 0x500040c0
        0x00002402:    2008        .       MOVS     r0,#8
        0x00002404:    6208        .b      STR      r0,[r1,#0x20]
        0x00002406:    4804        .H      LDR      r0,[pc,#16] ; [0x2418] = 0x20000048
        0x00002408:    68c0        .h      LDR      r0,[r0,#0xc]
        0x0000240a:    2800        .(      CMP      r0,#0
        0x0000240c:    d000        ..      BEQ      0x2410 ; EINT1_IRQHandler + 16
        0x0000240e:    4700        .G      BX       r0
        0x00002410:    4770        pG      BX       lr
    $d
        0x00002412:    0000        ..      DCW    0
        0x00002414:    500040c0    .@.P    DCD    1342193856
        0x00002418:    20000048    H..     DCD    536870984
    $t
    i.GPIOP0P1_IRQHandler
    GPIOP0P1_IRQHandler
        0x0000241c:    4a06        .J      LDR      r2,[pc,#24] ; [0x2438] = 0x50004000
        0x0000241e:    6a10        .j      LDR      r0,[r2,#0x20]
        0x00002420:    4b05        .K      LDR      r3,[pc,#20] ; [0x2438] = 0x50004000
        0x00002422:    3340        @3      ADDS     r3,r3,#0x40
        0x00002424:    6a19        .j      LDR      r1,[r3,#0x20]
        0x00002426:    6210        .b      STR      r0,[r2,#0x20]
        0x00002428:    6219        .b      STR      r1,[r3,#0x20]
        0x0000242a:    4a04        .J      LDR      r2,[pc,#16] ; [0x243c] = 0x20000048
        0x0000242c:    6812        .h      LDR      r2,[r2,#0]
        0x0000242e:    2a00        .*      CMP      r2,#0
        0x00002430:    d000        ..      BEQ      0x2434 ; GPIOP0P1_IRQHandler + 24
        0x00002432:    4710        .G      BX       r2
        0x00002434:    4770        pG      BX       lr
    $d
        0x00002436:    0000        ..      DCW    0
        0x00002438:    50004000    .@.P    DCD    1342193664
        0x0000243c:    20000048    H..     DCD    536870984
    $t
    i.GPIOP2P3P4_IRQHandler
    GPIOP2P3P4_IRQHandler
        0x00002440:    b4f0        ..      PUSH     {r4-r7}
        0x00002442:    4b0a        .K      LDR      r3,[pc,#40] ; [0x246c] = 0x50004080
        0x00002444:    6a18        .j      LDR      r0,[r3,#0x20]
        0x00002446:    4c09        .L      LDR      r4,[pc,#36] ; [0x246c] = 0x50004080
        0x00002448:    3440        @4      ADDS     r4,r4,#0x40
        0x0000244a:    6a21        !j      LDR      r1,[r4,#0x20]
        0x0000244c:    4d07        .M      LDR      r5,[pc,#28] ; [0x246c] = 0x50004080
        0x0000244e:    3580        .5      ADDS     r5,r5,#0x80
        0x00002450:    6a2a        *j      LDR      r2,[r5,#0x20]
        0x00002452:    260c        .&      MOVS     r6,#0xc
        0x00002454:    43b1        .C      BICS     r1,r1,r6
        0x00002456:    6218        .b      STR      r0,[r3,#0x20]
        0x00002458:    6221        !b      STR      r1,[r4,#0x20]
        0x0000245a:    622a        *b      STR      r2,[r5,#0x20]
        0x0000245c:    4b04        .K      LDR      r3,[pc,#16] ; [0x2470] = 0x20000048
        0x0000245e:    685b        [h      LDR      r3,[r3,#4]
        0x00002460:    2b00        .+      CMP      r3,#0
        0x00002462:    d001        ..      BEQ      0x2468 ; GPIOP2P3P4_IRQHandler + 40
        0x00002464:    bcf0        ..      POP      {r4-r7}
        0x00002466:    4718        .G      BX       r3
        0x00002468:    bcf0        ..      POP      {r4-r7}
        0x0000246a:    4770        pG      BX       lr
    $d
        0x0000246c:    50004080    .@.P    DCD    1342193792
        0x00002470:    20000048    H..     DCD    536870984
    $t
    i.GPIO_init
    GPIO_init
        0x00002474:    b510        ..      PUSH     {r4,lr}
        0x00002476:    2203        ."      MOVS     r2,#3
        0x00002478:    2100        .!      MOVS     r1,#0
        0x0000247a:    2002        .       MOVS     r0,#2
        0x0000247c:    f7fffab8    ....    BL       DrvGPIO_Open ; 0x19f0
        0x00002480:    2203        ."      MOVS     r2,#3
        0x00002482:    2101        .!      MOVS     r1,#1
        0x00002484:    2002        .       MOVS     r0,#2
        0x00002486:    f7fffab3    ....    BL       DrvGPIO_Open ; 0x19f0
        0x0000248a:    2203        ."      MOVS     r2,#3
        0x0000248c:    2101        .!      MOVS     r1,#1
        0x0000248e:    2002        .       MOVS     r0,#2
        0x00002490:    f7fffaae    ....    BL       DrvGPIO_Open ; 0x19f0
        0x00002494:    2102        .!      MOVS     r1,#2
        0x00002496:    2203        ."      MOVS     r2,#3
        0x00002498:    4608        .F      MOV      r0,r1
        0x0000249a:    f7fffaa9    ....    BL       DrvGPIO_Open ; 0x19f0
        0x0000249e:    2203        ."      MOVS     r2,#3
        0x000024a0:    4611        .F      MOV      r1,r2
        0x000024a2:    2002        .       MOVS     r0,#2
        0x000024a4:    f7fffaa4    ....    BL       DrvGPIO_Open ; 0x19f0
        0x000024a8:    2203        ."      MOVS     r2,#3
        0x000024aa:    2104        .!      MOVS     r1,#4
        0x000024ac:    2002        .       MOVS     r0,#2
        0x000024ae:    f7fffa9f    ....    BL       DrvGPIO_Open ; 0x19f0
        0x000024b2:    2203        ."      MOVS     r2,#3
        0x000024b4:    2105        .!      MOVS     r1,#5
        0x000024b6:    2002        .       MOVS     r0,#2
        0x000024b8:    f7fffa9a    ....    BL       DrvGPIO_Open ; 0x19f0
        0x000024bc:    2201        ."      MOVS     r2,#1
        0x000024be:    2106        .!      MOVS     r1,#6
        0x000024c0:    2002        .       MOVS     r0,#2
        0x000024c2:    f7fffa95    ....    BL       DrvGPIO_Open ; 0x19f0
        0x000024c6:    2201        ."      MOVS     r2,#1
        0x000024c8:    2107        .!      MOVS     r1,#7
        0x000024ca:    2002        .       MOVS     r0,#2
        0x000024cc:    f7fffa90    ....    BL       DrvGPIO_Open ; 0x19f0
        0x000024d0:    2203        ."      MOVS     r2,#3
        0x000024d2:    2105        .!      MOVS     r1,#5
        0x000024d4:    2000        .       MOVS     r0,#0
        0x000024d6:    f7fffa8b    ....    BL       DrvGPIO_Open ; 0x19f0
        0x000024da:    2104        .!      MOVS     r1,#4
        0x000024dc:    2203        ."      MOVS     r2,#3
        0x000024de:    4608        .F      MOV      r0,r1
        0x000024e0:    f7fffa86    ....    BL       DrvGPIO_Open ; 0x19f0
        0x000024e4:    2203        ."      MOVS     r2,#3
        0x000024e6:    2105        .!      MOVS     r1,#5
        0x000024e8:    2004        .       MOVS     r0,#4
        0x000024ea:    f7fffa81    ....    BL       DrvGPIO_Open ; 0x19f0
        0x000024ee:    2200        ."      MOVS     r2,#0
        0x000024f0:    2101        .!      MOVS     r1,#1
        0x000024f2:    4610        .F      MOV      r0,r2
        0x000024f4:    f7fffa7c    ..|.    BL       DrvGPIO_Open ; 0x19f0
        0x000024f8:    2200        ."      MOVS     r2,#0
        0x000024fa:    2102        .!      MOVS     r1,#2
        0x000024fc:    4610        .F      MOV      r0,r2
        0x000024fe:    f7fffa77    ..w.    BL       DrvGPIO_Open ; 0x19f0
        0x00002502:    2100        .!      MOVS     r1,#0
        0x00002504:    2201        ."      MOVS     r2,#1
        0x00002506:    4608        .F      MOV      r0,r1
        0x00002508:    f7fffa72    ..r.    BL       DrvGPIO_Open ; 0x19f0
        0x0000250c:    2201        ."      MOVS     r2,#1
        0x0000250e:    2107        .!      MOVS     r1,#7
        0x00002510:    2003        .       MOVS     r0,#3
        0x00002512:    f7fffa6d    ..m.    BL       DrvGPIO_Open ; 0x19f0
        0x00002516:    2201        ."      MOVS     r2,#1
        0x00002518:    2106        .!      MOVS     r1,#6
        0x0000251a:    2003        .       MOVS     r0,#3
        0x0000251c:    f7fffa68    ..h.    BL       DrvGPIO_Open ; 0x19f0
        0x00002520:    2103        .!      MOVS     r1,#3
        0x00002522:    2201        ."      MOVS     r2,#1
        0x00002524:    4608        .F      MOV      r0,r1
        0x00002526:    f7fffa63    ..c.    BL       DrvGPIO_Open ; 0x19f0
        0x0000252a:    2203        ."      MOVS     r2,#3
        0x0000252c:    2105        .!      MOVS     r1,#5
        0x0000252e:    4610        .F      MOV      r0,r2
        0x00002530:    f7fffa5e    ..^.    BL       DrvGPIO_Open ; 0x19f0
        0x00002534:    2203        ."      MOVS     r2,#3
        0x00002536:    2104        .!      MOVS     r1,#4
        0x00002538:    4610        .F      MOV      r0,r2
        0x0000253a:    f7fffa59    ..Y.    BL       DrvGPIO_Open ; 0x19f0
        0x0000253e:    bd10        ..      POP      {r4,pc}
    i.GetADC
    GetADC
        0x00002540:    b510        ..      PUSH     {r4,lr}
        0x00002542:    4604        .F      MOV      r4,r0
        0x00002544:    f7fff956    ..V.    BL       DrvADC_StartConvert ; 0x17f4
        0x00002548:    f7fff8fc    ....    BL       DrvADC_IsConversionDone ; 0x1744
        0x0000254c:    2800        .(      CMP      r0,#0
        0x0000254e:    d0fb        ..      BEQ      0x2548 ; GetADC + 8
        0x00002550:    4620         F      MOV      r0,r4
        0x00002552:    f7fff8ef    ....    BL       DrvADC_GetConversionData ; 0x1734
        0x00002556:    4901        .I      LDR      r1,[pc,#4] ; [0x255c] = 0x2000001c
        0x00002558:    6088        .`      STR      r0,[r1,#8]
        0x0000255a:    bd10        ..      POP      {r4,pc}
    $d
        0x0000255c:    2000001c    ...     DCD    536870940
    $t
    i.GetTimerClock
    GetTimerClock
        0x00002560:    b510        ..      PUSH     {r4,lr}
        0x00002562:    4912        .I      LDR      r1,[pc,#72] ; [0x25ac] = 0xffff9701
        0x00002564:    2800        .(      CMP      r0,#0
        0x00002566:    d007        ..      BEQ      0x2578 ; GetTimerClock + 24
        0x00002568:    2801        .(      CMP      r0,#1
        0x0000256a:    d005        ..      BEQ      0x2578 ; GetTimerClock + 24
        0x0000256c:    2802        .(      CMP      r0,#2
        0x0000256e:    d003        ..      BEQ      0x2578 ; GetTimerClock + 24
        0x00002570:    2803        .(      CMP      r0,#3
        0x00002572:    d001        ..      BEQ      0x2578 ; GetTimerClock + 24
        0x00002574:    4608        .F      MOV      r0,r1
        0x00002576:    bd10        ..      POP      {r4,pc}
        0x00002578:    480d        .H      LDR      r0,[pc,#52] ; [0x25b0] = 0x50000200
        0x0000257a:    6940        @i      LDR      r0,[r0,#0x14]
        0x0000257c:    0540        @.      LSLS     r0,r0,#21
        0x0000257e:    0f40        @.      LSRS     r0,r0,#29
        0x00002580:    2800        .(      CMP      r0,#0
        0x00002582:    d007        ..      BEQ      0x2594 ; GetTimerClock + 52
        0x00002584:    2801        .(      CMP      r0,#1
        0x00002586:    d008        ..      BEQ      0x259a ; GetTimerClock + 58
        0x00002588:    2802        .(      CMP      r0,#2
        0x0000258a:    d008        ..      BEQ      0x259e ; GetTimerClock + 62
        0x0000258c:    2803        .(      CMP      r0,#3
        0x0000258e:    d009        ..      BEQ      0x25a4 ; GetTimerClock + 68
        0x00002590:    4808        .H      LDR      r0,[pc,#32] ; [0x25b4] = 0x1518000
        0x00002592:    bd10        ..      POP      {r4,pc}
        0x00002594:    f7fffabc    ....    BL       DrvSYS_GetExtClockFreq ; 0x1b10
        0x00002598:    bd10        ..      POP      {r4,pc}
        0x0000259a:    4608        .F      MOV      r0,r1
        0x0000259c:    bd10        ..      POP      {r4,pc}
        0x0000259e:    f7fffabb    ....    BL       DrvSYS_GetPLLClockFreq ; 0x1b18
        0x000025a2:    bd10        ..      POP      {r4,pc}
        0x000025a4:    4804        .H      LDR      r0,[pc,#16] ; [0x25b8] = 0x20000060
        0x000025a6:    6d00        .m      LDR      r0,[r0,#0x50]
        0x000025a8:    bd10        ..      POP      {r4,pc}
    $d
        0x000025aa:    0000        ..      DCW    0
        0x000025ac:    ffff9701    ....    DCD    4294940417
        0x000025b0:    50000200    ...P    DCD    1342177792
        0x000025b4:    01518000    ..Q.    DCD    22118400
        0x000025b8:    20000060    `..     DCD    536871008
    $t
    i.GetUartClock
    GetUartClock
        0x000025bc:    b510        ..      PUSH     {r4,lr}
        0x000025be:    480c        .H      LDR      r0,[pc,#48] ; [0x25f0] = 0x50000200
        0x000025c0:    6941        Ai      LDR      r1,[r0,#0x14]
        0x000025c2:    0189        ..      LSLS     r1,r1,#6
        0x000025c4:    0f89        ..      LSRS     r1,r1,#30
        0x000025c6:    d006        ..      BEQ      0x25d6 ; GetUartClock + 26
        0x000025c8:    6941        Ai      LDR      r1,[r0,#0x14]
        0x000025ca:    0189        ..      LSLS     r1,r1,#6
        0x000025cc:    0f89        ..      LSRS     r1,r1,#30
        0x000025ce:    2901        .)      CMP      r1,#1
        0x000025d0:    d004        ..      BEQ      0x25dc ; GetUartClock + 32
        0x000025d2:    4808        .H      LDR      r0,[pc,#32] ; [0x25f4] = 0x1518000
        0x000025d4:    bd10        ..      POP      {r4,pc}
        0x000025d6:    f7fffa9b    ....    BL       DrvSYS_GetExtClockFreq ; 0x1b10
        0x000025da:    bd10        ..      POP      {r4,pc}
        0x000025dc:    6980        .i      LDR      r0,[r0,#0x18]
        0x000025de:    0500        ..      LSLS     r0,r0,#20
        0x000025e0:    0f04        ..      LSRS     r4,r0,#28
        0x000025e2:    f7fffa99    ....    BL       DrvSYS_GetPLLClockFreq ; 0x1b18
        0x000025e6:    1c61        a.      ADDS     r1,r4,#1
        0x000025e8:    f7fdfec6    ....    BL       __aeabi_uidiv ; 0x378
        0x000025ec:    bd10        ..      POP      {r4,pc}
    $d
        0x000025ee:    0000        ..      DCW    0
        0x000025f0:    50000200    ...P    DCD    1342177792
        0x000025f4:    01518000    ..Q.    DCD    22118400
    $t
    i.I2C_IRQHandler
    I2C_IRQHandler
        0x000025f8:    b430        0.      PUSH     {r4,r5}
        0x000025fa:    4a12        .J      LDR      r2,[pc,#72] ; [0x2644] = 0x40020000
        0x000025fc:    68d0        .h      LDR      r0,[r2,#0xc]
        0x000025fe:    6951        Qi      LDR      r1,[r2,#0x14]
        0x00002600:    07cb        ..      LSLS     r3,r1,#31
        0x00002602:    4911        .I      LDR      r1,[pc,#68] ; [0x2648] = 0x200001c0
        0x00002604:    d008        ..      BEQ      0x2618 ; I2C_IRQHandler + 32
        0x00002606:    6953        Si      LDR      r3,[r2,#0x14]
        0x00002608:    2401        .$      MOVS     r4,#1
        0x0000260a:    4323        #C      ORRS     r3,r3,r4
        0x0000260c:    6153        Sa      STR      r3,[r2,#0x14]
        0x0000260e:    68c9        .h      LDR      r1,[r1,#0xc]
        0x00002610:    2900        .)      CMP      r1,#0
        0x00002612:    d014        ..      BEQ      0x263e ; I2C_IRQHandler + 70
        0x00002614:    bc30        0.      POP      {r4,r5}
        0x00002616:    4708        .G      BX       r1
        0x00002618:    2800        .(      CMP      r0,#0
        0x0000261a:    d00b        ..      BEQ      0x2634 ; I2C_IRQHandler + 60
        0x0000261c:    2838        8(      CMP      r0,#0x38
        0x0000261e:    d004        ..      BEQ      0x262a ; I2C_IRQHandler + 50
        0x00002620:    6809        .h      LDR      r1,[r1,#0]
        0x00002622:    2900        .)      CMP      r1,#0
        0x00002624:    d00b        ..      BEQ      0x263e ; I2C_IRQHandler + 70
        0x00002626:    bc30        0.      POP      {r4,r5}
        0x00002628:    4708        .G      BX       r1
        0x0000262a:    6849        Ih      LDR      r1,[r1,#4]
        0x0000262c:    2900        .)      CMP      r1,#0
        0x0000262e:    d006        ..      BEQ      0x263e ; I2C_IRQHandler + 70
        0x00002630:    bc30        0.      POP      {r4,r5}
        0x00002632:    4708        .G      BX       r1
        0x00002634:    6889        .h      LDR      r1,[r1,#8]
        0x00002636:    2900        .)      CMP      r1,#0
        0x00002638:    d001        ..      BEQ      0x263e ; I2C_IRQHandler + 70
        0x0000263a:    bc30        0.      POP      {r4,r5}
        0x0000263c:    4708        .G      BX       r1
        0x0000263e:    bc30        0.      POP      {r4,r5}
        0x00002640:    4770        pG      BX       lr
    $d
        0x00002642:    0000        ..      DCW    0
        0x00002644:    40020000    ...@    DCD    1073872896
        0x00002648:    200001c0    ...     DCD    536871360
    $t
    i.Init_MCU
    Init_MCU
        0x0000264c:    b510        ..      PUSH     {r4,lr}
        0x0000264e:    4c0c        .L      LDR      r4,[pc,#48] ; [0x2680] = 0x50000100
        0x00002650:    2059        Y       MOVS     r0,#0x59
        0x00002652:    6020         `      STR      r0,[r4,#0]
        0x00002654:    2016        .       MOVS     r0,#0x16
        0x00002656:    6020         `      STR      r0,[r4,#0]
        0x00002658:    2088        .       MOVS     r0,#0x88
        0x0000265a:    6020         `      STR      r0,[r4,#0]
        0x0000265c:    2101        .!      MOVS     r1,#1
        0x0000265e:    4608        .F      MOV      r0,r1
        0x00002660:    f7fffafc    ....    BL       DrvSYS_SetOscCtrl ; 0x1c5c
        0x00002664:    2000        .       MOVS     r0,#0
        0x00002666:    6020         `      STR      r0,[r4,#0]
        0x00002668:    f000f922    ..".    BL       PWM_init ; 0x28b0
        0x0000266c:    f000fb9c    ....    BL       UART_init ; 0x2da8
        0x00002670:    f7ffff00    ....    BL       GPIO_init ; 0x2474
        0x00002674:    f7feff94    ....    BL       ADC_init ; 0x15a0
        0x00002678:    f000f804    ....    BL       Init_Timer2 ; 0x2684
        0x0000267c:    bd10        ..      POP      {r4,pc}
    $d
        0x0000267e:    0000        ..      DCW    0
        0x00002680:    50000100    ...P    DCD    1342177536
    $t
    i.Init_Timer2
    Init_Timer2
        0x00002684:    b510        ..      PUSH     {r4,lr}
        0x00002686:    f7fffb51    ..Q.    BL       DrvTIMER_Init ; 0x1d2c
        0x0000268a:    2107        .!      MOVS     r1,#7
        0x0000268c:    2004        .       MOVS     r0,#4
        0x0000268e:    f7fffa75    ..u.    BL       DrvSYS_SelectIPClockSource ; 0x1b7c
        0x00002692:    2201        ."      MOVS     r2,#1
        0x00002694:    210a        .!      MOVS     r1,#0xa
        0x00002696:    2002        .       MOVS     r0,#2
        0x00002698:    f7fffb52    ..R.    BL       DrvTIMER_Open ; 0x1d40
        0x0000269c:    2300        .#      MOVS     r3,#0
        0x0000269e:    4a06        .J      LDR      r2,[pc,#24] ; [0x26b8] = 0x2b79
        0x000026a0:    2105        .!      MOVS     r1,#5
        0x000026a2:    2002        .       MOVS     r0,#2
        0x000026a4:    f7fffc3c    ..<.    BL       DrvTIMER_SetTimerEvent ; 0x1f20
        0x000026a8:    2002        .       MOVS     r0,#2
        0x000026aa:    f7fffafd    ....    BL       DrvTIMER_EnableInt ; 0x1ca8
        0x000026ae:    2002        .       MOVS     r0,#2
        0x000026b0:    f7fffcce    ....    BL       DrvTIMER_Start ; 0x2050
        0x000026b4:    bd10        ..      POP      {r4,pc}
    $d
        0x000026b6:    0000        ..      DCW    0
        0x000026b8:    00002b79    y+..    DCD    11129
    $t
    i.NVIC_EnableIRQ
    NVIC_EnableIRQ
        0x000026bc:    06c1        ..      LSLS     r1,r0,#27
        0x000026be:    0ec9        ..      LSRS     r1,r1,#27
        0x000026c0:    2001        .       MOVS     r0,#1
        0x000026c2:    4088        .@      LSLS     r0,r0,r1
        0x000026c4:    4901        .I      LDR      r1,[pc,#4] ; [0x26cc] = 0xe000e100
        0x000026c6:    6008        .`      STR      r0,[r1,#0]
        0x000026c8:    4770        pG      BX       lr
    $d
        0x000026ca:    0000        ..      DCW    0
        0x000026cc:    e000e100    ....    DCD    3758153984
    $t
    i.NVIC_SetPriority
    NVIC_SetPriority
        0x000026d0:    0783        ..      LSLS     r3,r0,#30
        0x000026d2:    22ff        ."      MOVS     r2,#0xff
        0x000026d4:    0edb        ..      LSRS     r3,r3,#27
        0x000026d6:    409a        .@      LSLS     r2,r2,r3
        0x000026d8:    0789        ..      LSLS     r1,r1,#30
        0x000026da:    0e09        ..      LSRS     r1,r1,#24
        0x000026dc:    4099        .@      LSLS     r1,r1,r3
        0x000026de:    2800        .(      CMP      r0,#0
        0x000026e0:    da0b        ..      BGE      0x26fa ; NVIC_SetPriority + 42
        0x000026e2:    0700        ..      LSLS     r0,r0,#28
        0x000026e4:    0f00        ..      LSRS     r0,r0,#28
        0x000026e6:    3808        .8      SUBS     r0,r0,#8
        0x000026e8:    0883        ..      LSRS     r3,r0,#2
        0x000026ea:    4808        .H      LDR      r0,[pc,#32] ; [0x270c] = 0xe000ed00
        0x000026ec:    009b        ..      LSLS     r3,r3,#2
        0x000026ee:    1818        ..      ADDS     r0,r3,r0
        0x000026f0:    69c3        .i      LDR      r3,[r0,#0x1c]
        0x000026f2:    4393        .C      BICS     r3,r3,r2
        0x000026f4:    430b        .C      ORRS     r3,r3,r1
        0x000026f6:    61c3        .a      STR      r3,[r0,#0x1c]
        0x000026f8:    4770        pG      BX       lr
        0x000026fa:    0883        ..      LSRS     r3,r0,#2
        0x000026fc:    4804        .H      LDR      r0,[pc,#16] ; [0x2710] = 0xe000e400
        0x000026fe:    009b        ..      LSLS     r3,r3,#2
        0x00002700:    1818        ..      ADDS     r0,r3,r0
        0x00002702:    6803        .h      LDR      r3,[r0,#0]
        0x00002704:    4393        .C      BICS     r3,r3,r2
        0x00002706:    430b        .C      ORRS     r3,r3,r1
        0x00002708:    6003        .`      STR      r3,[r0,#0]
        0x0000270a:    4770        pG      BX       lr
    $d
        0x0000270c:    e000ed00    ....    DCD    3758157056
        0x00002710:    e000e400    ....    DCD    3758154752
    $t
    i.NVIC_SetPriority
    NVIC_SetPriority
        0x00002714:    0783        ..      LSLS     r3,r0,#30
        0x00002716:    22ff        ."      MOVS     r2,#0xff
        0x00002718:    0edb        ..      LSRS     r3,r3,#27
        0x0000271a:    409a        .@      LSLS     r2,r2,r3
        0x0000271c:    0789        ..      LSLS     r1,r1,#30
        0x0000271e:    0e09        ..      LSRS     r1,r1,#24
        0x00002720:    4099        .@      LSLS     r1,r1,r3
        0x00002722:    2800        .(      CMP      r0,#0
        0x00002724:    da0b        ..      BGE      0x273e ; NVIC_SetPriority + 42
        0x00002726:    0700        ..      LSLS     r0,r0,#28
        0x00002728:    0f00        ..      LSRS     r0,r0,#28
        0x0000272a:    3808        .8      SUBS     r0,r0,#8
        0x0000272c:    0883        ..      LSRS     r3,r0,#2
        0x0000272e:    4808        .H      LDR      r0,[pc,#32] ; [0x2750] = 0xe000ed00
        0x00002730:    009b        ..      LSLS     r3,r3,#2
        0x00002732:    1818        ..      ADDS     r0,r3,r0
        0x00002734:    69c3        .i      LDR      r3,[r0,#0x1c]
        0x00002736:    4393        .C      BICS     r3,r3,r2
        0x00002738:    430b        .C      ORRS     r3,r3,r1
        0x0000273a:    61c3        .a      STR      r3,[r0,#0x1c]
        0x0000273c:    4770        pG      BX       lr
        0x0000273e:    0883        ..      LSRS     r3,r0,#2
        0x00002740:    4804        .H      LDR      r0,[pc,#16] ; [0x2754] = 0xe000e400
        0x00002742:    009b        ..      LSLS     r3,r3,#2
        0x00002744:    1818        ..      ADDS     r0,r3,r0
        0x00002746:    6803        .h      LDR      r3,[r0,#0]
        0x00002748:    4393        .C      BICS     r3,r3,r2
        0x0000274a:    430b        .C      ORRS     r3,r3,r1
        0x0000274c:    6003        .`      STR      r3,[r0,#0]
        0x0000274e:    4770        pG      BX       lr
    $d
        0x00002750:    e000ed00    ....    DCD    3758157056
        0x00002754:    e000e400    ....    DCD    3758154752
    $t
    i.PWMA_IRQHandler
    PWMA_IRQHandler
        0x00002758:    b5f8        ..      PUSH     {r3-r7,lr}
        0x0000275a:    4e26        &N      LDR      r6,[pc,#152] ; [0x27f4] = 0x40040040
        0x0000275c:    6874        th      LDR      r4,[r6,#4]
        0x0000275e:    4d26        &M      LDR      r5,[pc,#152] ; [0x27f8] = 0x200001d0
        0x00002760:    07e0        ..      LSLS     r0,r4,#31
        0x00002762:    d005        ..      BEQ      0x2770 ; PWMA_IRQHandler + 24
        0x00002764:    2001        .       MOVS     r0,#1
        0x00002766:    6070        p`      STR      r0,[r6,#4]
        0x00002768:    6828        (h      LDR      r0,[r5,#0]
        0x0000276a:    2800        .(      CMP      r0,#0
        0x0000276c:    d000        ..      BEQ      0x2770 ; PWMA_IRQHandler + 24
        0x0000276e:    4780        .G      BLX      r0
        0x00002770:    07a0        ..      LSLS     r0,r4,#30
        0x00002772:    d505        ..      BPL      0x2780 ; PWMA_IRQHandler + 40
        0x00002774:    2002        .       MOVS     r0,#2
        0x00002776:    6070        p`      STR      r0,[r6,#4]
        0x00002778:    68a8        .h      LDR      r0,[r5,#8]
        0x0000277a:    2800        .(      CMP      r0,#0
        0x0000277c:    d000        ..      BEQ      0x2780 ; PWMA_IRQHandler + 40
        0x0000277e:    4780        .G      BLX      r0
        0x00002780:    0760        `.      LSLS     r0,r4,#29
        0x00002782:    d505        ..      BPL      0x2790 ; PWMA_IRQHandler + 56
        0x00002784:    2004        .       MOVS     r0,#4
        0x00002786:    6070        p`      STR      r0,[r6,#4]
        0x00002788:    6928        (i      LDR      r0,[r5,#0x10]
        0x0000278a:    2800        .(      CMP      r0,#0
        0x0000278c:    d000        ..      BEQ      0x2790 ; PWMA_IRQHandler + 56
        0x0000278e:    4780        .G      BLX      r0
        0x00002790:    0720         .      LSLS     r0,r4,#28
        0x00002792:    d505        ..      BPL      0x27a0 ; PWMA_IRQHandler + 72
        0x00002794:    2008        .       MOVS     r0,#8
        0x00002796:    6070        p`      STR      r0,[r6,#4]
        0x00002798:    69a8        .i      LDR      r0,[r5,#0x18]
        0x0000279a:    2800        .(      CMP      r0,#0
        0x0000279c:    d000        ..      BEQ      0x27a0 ; PWMA_IRQHandler + 72
        0x0000279e:    4780        .G      BLX      r0
        0x000027a0:    6934        4i      LDR      r4,[r6,#0x10]
        0x000027a2:    6977        wi      LDR      r7,[r6,#0x14]
        0x000027a4:    06e0        ..      LSLS     r0,r4,#27
        0x000027a6:    d507        ..      BPL      0x27b8 ; PWMA_IRQHandler + 96
        0x000027a8:    6930        0i      LDR      r0,[r6,#0x10]
        0x000027aa:    4914        .I      LDR      r1,[pc,#80] ; [0x27fc] = 0xf001f
        0x000027ac:    4008        .@      ANDS     r0,r0,r1
        0x000027ae:    6130        0a      STR      r0,[r6,#0x10]
        0x000027b0:    6868        hh      LDR      r0,[r5,#4]
        0x000027b2:    2800        .(      CMP      r0,#0
        0x000027b4:    d000        ..      BEQ      0x27b8 ; PWMA_IRQHandler + 96
        0x000027b6:    4780        .G      BLX      r0
        0x000027b8:    02e0        ..      LSLS     r0,r4,#11
        0x000027ba:    4c11        .L      LDR      r4,[pc,#68] ; [0x2800] = 0x1f000f
        0x000027bc:    d506        ..      BPL      0x27cc ; PWMA_IRQHandler + 116
        0x000027be:    6930        0i      LDR      r0,[r6,#0x10]
        0x000027c0:    4020         @      ANDS     r0,r0,r4
        0x000027c2:    6130        0a      STR      r0,[r6,#0x10]
        0x000027c4:    68e8        .h      LDR      r0,[r5,#0xc]
        0x000027c6:    2800        .(      CMP      r0,#0
        0x000027c8:    d000        ..      BEQ      0x27cc ; PWMA_IRQHandler + 116
        0x000027ca:    4780        .G      BLX      r0
        0x000027cc:    06f8        ..      LSLS     r0,r7,#27
        0x000027ce:    d507        ..      BPL      0x27e0 ; PWMA_IRQHandler + 136
        0x000027d0:    6971        qi      LDR      r1,[r6,#0x14]
        0x000027d2:    480a        .H      LDR      r0,[pc,#40] ; [0x27fc] = 0xf001f
        0x000027d4:    4001        .@      ANDS     r1,r1,r0
        0x000027d6:    6171        qa      STR      r1,[r6,#0x14]
        0x000027d8:    6968        hi      LDR      r0,[r5,#0x14]
        0x000027da:    2800        .(      CMP      r0,#0
        0x000027dc:    d000        ..      BEQ      0x27e0 ; PWMA_IRQHandler + 136
        0x000027de:    4780        .G      BLX      r0
        0x000027e0:    02f8        ..      LSLS     r0,r7,#11
        0x000027e2:    d506        ..      BPL      0x27f2 ; PWMA_IRQHandler + 154
        0x000027e4:    6970        pi      LDR      r0,[r6,#0x14]
        0x000027e6:    4020         @      ANDS     r0,r0,r4
        0x000027e8:    6170        pa      STR      r0,[r6,#0x14]
        0x000027ea:    69e8        .i      LDR      r0,[r5,#0x1c]
        0x000027ec:    2800        .(      CMP      r0,#0
        0x000027ee:    d000        ..      BEQ      0x27f2 ; PWMA_IRQHandler + 154
        0x000027f0:    4780        .G      BLX      r0
        0x000027f2:    bdf8        ..      POP      {r3-r7,pc}
    $d
        0x000027f4:    40040040    @..@    DCD    1074004032
        0x000027f8:    200001d0    ...     DCD    536871376
        0x000027fc:    000f001f    ....    DCD    983071
        0x00002800:    001f000f    ....    DCD    2031631
    $t
    i.PWMB_IRQHandler
    PWMB_IRQHandler
        0x00002804:    b5f8        ..      PUSH     {r3-r7,lr}
        0x00002806:    4e26        &N      LDR      r6,[pc,#152] ; [0x28a0] = 0x40140040
        0x00002808:    6874        th      LDR      r4,[r6,#4]
        0x0000280a:    4d26        &M      LDR      r5,[pc,#152] ; [0x28a4] = 0x200001f0
        0x0000280c:    07e0        ..      LSLS     r0,r4,#31
        0x0000280e:    d005        ..      BEQ      0x281c ; PWMB_IRQHandler + 24
        0x00002810:    2001        .       MOVS     r0,#1
        0x00002812:    6070        p`      STR      r0,[r6,#4]
        0x00002814:    6828        (h      LDR      r0,[r5,#0]
        0x00002816:    2800        .(      CMP      r0,#0
        0x00002818:    d000        ..      BEQ      0x281c ; PWMB_IRQHandler + 24
        0x0000281a:    4780        .G      BLX      r0
        0x0000281c:    07a0        ..      LSLS     r0,r4,#30
        0x0000281e:    d505        ..      BPL      0x282c ; PWMB_IRQHandler + 40
        0x00002820:    2002        .       MOVS     r0,#2
        0x00002822:    6070        p`      STR      r0,[r6,#4]
        0x00002824:    68a8        .h      LDR      r0,[r5,#8]
        0x00002826:    2800        .(      CMP      r0,#0
        0x00002828:    d000        ..      BEQ      0x282c ; PWMB_IRQHandler + 40
        0x0000282a:    4780        .G      BLX      r0
        0x0000282c:    0760        `.      LSLS     r0,r4,#29
        0x0000282e:    d505        ..      BPL      0x283c ; PWMB_IRQHandler + 56
        0x00002830:    2004        .       MOVS     r0,#4
        0x00002832:    6070        p`      STR      r0,[r6,#4]
        0x00002834:    6928        (i      LDR      r0,[r5,#0x10]
        0x00002836:    2800        .(      CMP      r0,#0
        0x00002838:    d000        ..      BEQ      0x283c ; PWMB_IRQHandler + 56
        0x0000283a:    4780        .G      BLX      r0
        0x0000283c:    0720         .      LSLS     r0,r4,#28
        0x0000283e:    d505        ..      BPL      0x284c ; PWMB_IRQHandler + 72
        0x00002840:    2008        .       MOVS     r0,#8
        0x00002842:    6070        p`      STR      r0,[r6,#4]
        0x00002844:    69a8        .i      LDR      r0,[r5,#0x18]
        0x00002846:    2800        .(      CMP      r0,#0
        0x00002848:    d000        ..      BEQ      0x284c ; PWMB_IRQHandler + 72
        0x0000284a:    4780        .G      BLX      r0
        0x0000284c:    6934        4i      LDR      r4,[r6,#0x10]
        0x0000284e:    6977        wi      LDR      r7,[r6,#0x14]
        0x00002850:    06e0        ..      LSLS     r0,r4,#27
        0x00002852:    d507        ..      BPL      0x2864 ; PWMB_IRQHandler + 96
        0x00002854:    6930        0i      LDR      r0,[r6,#0x10]
        0x00002856:    4914        .I      LDR      r1,[pc,#80] ; [0x28a8] = 0xf001f
        0x00002858:    4008        .@      ANDS     r0,r0,r1
        0x0000285a:    6130        0a      STR      r0,[r6,#0x10]
        0x0000285c:    6868        hh      LDR      r0,[r5,#4]
        0x0000285e:    2800        .(      CMP      r0,#0
        0x00002860:    d000        ..      BEQ      0x2864 ; PWMB_IRQHandler + 96
        0x00002862:    4780        .G      BLX      r0
        0x00002864:    02e0        ..      LSLS     r0,r4,#11
        0x00002866:    4c11        .L      LDR      r4,[pc,#68] ; [0x28ac] = 0x1f000f
        0x00002868:    d506        ..      BPL      0x2878 ; PWMB_IRQHandler + 116
        0x0000286a:    6930        0i      LDR      r0,[r6,#0x10]
        0x0000286c:    4020         @      ANDS     r0,r0,r4
        0x0000286e:    6130        0a      STR      r0,[r6,#0x10]
        0x00002870:    68e8        .h      LDR      r0,[r5,#0xc]
        0x00002872:    2800        .(      CMP      r0,#0
        0x00002874:    d000        ..      BEQ      0x2878 ; PWMB_IRQHandler + 116
        0x00002876:    4780        .G      BLX      r0
        0x00002878:    06f8        ..      LSLS     r0,r7,#27
        0x0000287a:    d507        ..      BPL      0x288c ; PWMB_IRQHandler + 136
        0x0000287c:    6971        qi      LDR      r1,[r6,#0x14]
        0x0000287e:    480a        .H      LDR      r0,[pc,#40] ; [0x28a8] = 0xf001f
        0x00002880:    4001        .@      ANDS     r1,r1,r0
        0x00002882:    6171        qa      STR      r1,[r6,#0x14]
        0x00002884:    6968        hi      LDR      r0,[r5,#0x14]
        0x00002886:    2800        .(      CMP      r0,#0
        0x00002888:    d000        ..      BEQ      0x288c ; PWMB_IRQHandler + 136
        0x0000288a:    4780        .G      BLX      r0
        0x0000288c:    02f8        ..      LSLS     r0,r7,#11
        0x0000288e:    d506        ..      BPL      0x289e ; PWMB_IRQHandler + 154
        0x00002890:    6970        pi      LDR      r0,[r6,#0x14]
        0x00002892:    4020         @      ANDS     r0,r0,r4
        0x00002894:    6170        pa      STR      r0,[r6,#0x14]
        0x00002896:    69e8        .i      LDR      r0,[r5,#0x1c]
        0x00002898:    2800        .(      CMP      r0,#0
        0x0000289a:    d000        ..      BEQ      0x289e ; PWMB_IRQHandler + 154
        0x0000289c:    4780        .G      BLX      r0
        0x0000289e:    bdf8        ..      POP      {r3-r7,pc}
    $d
        0x000028a0:    40140040    @..@    DCD    1075052608
        0x000028a4:    200001f0    ...     DCD    536871408
        0x000028a8:    000f001f    ....    DCD    983071
        0x000028ac:    001f000f    ....    DCD    2031631
    $t
    i.PWM_init
    PWM_init
        0x000028b0:    b510        ..      PUSH     {r4,lr}
        0x000028b2:    2019        .       MOVS     r0,#0x19
        0x000028b4:    f7feffc2    ....    BL       DrvGPIO_InitFunction ; 0x183c
        0x000028b8:    4831        1H      LDR      r0,[pc,#196] ; [0x2980] = 0x50000200
        0x000028ba:    6881        .h      LDR      r1,[r0,#8]
        0x000028bc:    02c2        ..      LSLS     r2,r0,#11
        0x000028be:    4311        .C      ORRS     r1,r1,r2
        0x000028c0:    6081        .`      STR      r1,[r0,#8]
        0x000028c2:    6881        .h      LDR      r1,[r0,#8]
        0x000028c4:    0302        ..      LSLS     r2,r0,#12
        0x000028c6:    4311        .C      ORRS     r1,r1,r2
        0x000028c8:    6081        .`      STR      r1,[r0,#8]
        0x000028ca:    6941        Ai      LDR      r1,[r0,#0x14]
        0x000028cc:    2203        ."      MOVS     r2,#3
        0x000028ce:    0712        ..      LSLS     r2,r2,#28
        0x000028d0:    4311        .C      ORRS     r1,r1,r2
        0x000028d2:    6141        Aa      STR      r1,[r0,#0x14]
        0x000028d4:    6941        Ai      LDR      r1,[r0,#0x14]
        0x000028d6:    0092        ..      LSLS     r2,r2,#2
        0x000028d8:    4311        .C      ORRS     r1,r1,r2
        0x000028da:    6141        Aa      STR      r1,[r0,#0x14]
        0x000028dc:    4829        )H      LDR      r0,[pc,#164] ; [0x2984] = 0x40040000
        0x000028de:    6801        .h      LDR      r1,[r0,#0]
        0x000028e0:    0a09        ..      LSRS     r1,r1,#8
        0x000028e2:    0209        ..      LSLS     r1,r1,#8
        0x000028e4:    1c49        I.      ADDS     r1,r1,#1
        0x000028e6:    6001        .`      STR      r1,[r0,#0]
        0x000028e8:    6801        .h      LDR      r1,[r0,#0]
        0x000028ea:    22ff        ."      MOVS     r2,#0xff
        0x000028ec:    0212        ..      LSLS     r2,r2,#8
        0x000028ee:    4391        .C      BICS     r1,r1,r2
        0x000028f0:    31ff        .1      ADDS     r1,r1,#0xff
        0x000028f2:    3101        .1      ADDS     r1,#1
        0x000028f4:    6001        .`      STR      r1,[r0,#0]
        0x000028f6:    6841        Ah      LDR      r1,[r0,#4]
        0x000028f8:    2270        p"      MOVS     r2,#0x70
        0x000028fa:    4391        .C      BICS     r1,r1,r2
        0x000028fc:    6041        A`      STR      r1,[r0,#4]
        0x000028fe:    6841        Ah      LDR      r1,[r0,#4]
        0x00002900:    0112        ..      LSLS     r2,r2,#4
        0x00002902:    4391        .C      BICS     r1,r1,r2
        0x00002904:    6041        A`      STR      r1,[r0,#4]
        0x00002906:    6881        .h      LDR      r1,[r0,#8]
        0x00002908:    2208        ."      MOVS     r2,#8
        0x0000290a:    4311        .C      ORRS     r1,r1,r2
        0x0000290c:    6081        .`      STR      r1,[r0,#8]
        0x0000290e:    6881        .h      LDR      r1,[r0,#8]
        0x00002910:    14c2        ..      ASRS     r2,r0,#19
        0x00002912:    4311        .C      ORRS     r1,r1,r2
        0x00002914:    6081        .`      STR      r1,[r0,#8]
        0x00002916:    6881        .h      LDR      r1,[r0,#8]
        0x00002918:    0212        ..      LSLS     r2,r2,#8
        0x0000291a:    4311        .C      ORRS     r1,r1,r2
        0x0000291c:    6081        .`      STR      r1,[r0,#8]
        0x0000291e:    6881        .h      LDR      r1,[r0,#8]
        0x00002920:    0242        B.      LSLS     r2,r0,#9
        0x00002922:    4311        .C      ORRS     r1,r1,r2
        0x00002924:    6081        .`      STR      r1,[r0,#8]
        0x00002926:    6881        .h      LDR      r1,[r0,#8]
        0x00002928:    2204        ."      MOVS     r2,#4
        0x0000292a:    4311        .C      ORRS     r1,r1,r2
        0x0000292c:    6081        .`      STR      r1,[r0,#8]
        0x0000292e:    6881        .h      LDR      r1,[r0,#8]
        0x00002930:    1502        ..      ASRS     r2,r0,#20
        0x00002932:    4391        .C      BICS     r1,r1,r2
        0x00002934:    6081        .`      STR      r1,[r0,#8]
        0x00002936:    6881        .h      LDR      r1,[r0,#8]
        0x00002938:    0212        ..      LSLS     r2,r2,#8
        0x0000293a:    4391        .C      BICS     r1,r1,r2
        0x0000293c:    6081        .`      STR      r1,[r0,#8]
        0x0000293e:    6881        .h      LDR      r1,[r0,#8]
        0x00002940:    0202        ..      LSLS     r2,r0,#8
        0x00002942:    4391        .C      BICS     r1,r1,r2
        0x00002944:    6081        .`      STR      r1,[r0,#8]
        0x00002946:    6881        .h      LDR      r1,[r0,#8]
        0x00002948:    2210        ."      MOVS     r2,#0x10
        0x0000294a:    4391        .C      BICS     r1,r1,r2
        0x0000294c:    6081        .`      STR      r1,[r0,#8]
        0x0000294e:    6881        .h      LDR      r1,[r0,#8]
        0x00002950:    2220         "      MOVS     r2,#0x20
        0x00002952:    4391        .C      BICS     r1,r1,r2
        0x00002954:    6081        .`      STR      r1,[r0,#8]
        0x00002956:    21ff        .!      MOVS     r1,#0xff
        0x00002958:    3114        .1      ADDS     r1,r1,#0x14
        0x0000295a:    60c1        .`      STR      r1,[r0,#0xc]
        0x0000295c:    2264        d"      MOVS     r2,#0x64
        0x0000295e:    6102        .a      STR      r2,[r0,#0x10]
        0x00002960:    6181        .a      STR      r1,[r0,#0x18]
        0x00002962:    61c2        .a      STR      r2,[r0,#0x1c]
        0x00002964:    6241        Ab      STR      r1,[r0,#0x24]
        0x00002966:    6282        .b      STR      r2,[r0,#0x28]
        0x00002968:    6301        .c      STR      r1,[r0,#0x30]
        0x0000296a:    6342        Bc      STR      r2,[r0,#0x34]
        0x0000296c:    6882        .h      LDR      r2,[r0,#8]
        0x0000296e:    2101        .!      MOVS     r1,#1
        0x00002970:    430a        .C      ORRS     r2,r2,r1
        0x00002972:    6082        .`      STR      r2,[r0,#8]
        0x00002974:    4803        .H      LDR      r0,[pc,#12] ; [0x2984] = 0x40040000
        0x00002976:    3040        @0      ADDS     r0,r0,#0x40
        0x00002978:    6bc2        .k      LDR      r2,[r0,#0x3c]
        0x0000297a:    430a        .C      ORRS     r2,r2,r1
        0x0000297c:    63c2        .c      STR      r2,[r0,#0x3c]
        0x0000297e:    bd10        ..      POP      {r4,pc}
    $d
        0x00002980:    50000200    ...P    DCD    1342177792
        0x00002984:    40040000    ...@    DCD    1074003968
    $t
    i.PWRWU_IRQHandler
    PWRWU_IRQHandler
        0x00002988:    4805        .H      LDR      r0,[pc,#20] ; [0x29a0] = 0x50000200
        0x0000298a:    6801        .h      LDR      r1,[r0,#0]
        0x0000298c:    2240        @"      MOVS     r2,#0x40
        0x0000298e:    4311        .C      ORRS     r1,r1,r2
        0x00002990:    6001        .`      STR      r1,[r0,#0]
        0x00002992:    4804        .H      LDR      r0,[pc,#16] ; [0x29a4] = 0x20000058
        0x00002994:    6840        @h      LDR      r0,[r0,#4]
        0x00002996:    2800        .(      CMP      r0,#0
        0x00002998:    d000        ..      BEQ      0x299c ; PWRWU_IRQHandler + 20
        0x0000299a:    4700        .G      BX       r0
        0x0000299c:    4770        pG      BX       lr
    $d
        0x0000299e:    0000        ..      DCW    0
        0x000029a0:    50000200    ...P    DCD    1342177792
        0x000029a4:    20000058    X..     DCD    536871000
    $t
    i.SPI0_IRQHandler
    SPI0_IRQHandler
        0x000029a8:    4806        .H      LDR      r0,[pc,#24] ; [0x29c4] = 0x40030000
        0x000029aa:    6801        .h      LDR      r1,[r0,#0]
        0x000029ac:    2201        ."      MOVS     r2,#1
        0x000029ae:    0412        ..      LSLS     r2,r2,#16
        0x000029b0:    4311        .C      ORRS     r1,r1,r2
        0x000029b2:    6001        .`      STR      r1,[r0,#0]
        0x000029b4:    4804        .H      LDR      r0,[pc,#16] ; [0x29c8] = 0x20000210
        0x000029b6:    6841        Ah      LDR      r1,[r0,#4]
        0x000029b8:    2900        .)      CMP      r1,#0
        0x000029ba:    d001        ..      BEQ      0x29c0 ; SPI0_IRQHandler + 24
        0x000029bc:    6880        .h      LDR      r0,[r0,#8]
        0x000029be:    4708        .G      BX       r1
        0x000029c0:    4770        pG      BX       lr
    $d
        0x000029c2:    0000        ..      DCW    0
        0x000029c4:    40030000    ...@    DCD    1073938432
        0x000029c8:    20000210    ...     DCD    536871440
    $t
    i.SPI1_IRQHandler
    SPI1_IRQHandler
        0x000029cc:    4806        .H      LDR      r0,[pc,#24] ; [0x29e8] = 0x40034000
        0x000029ce:    6801        .h      LDR      r1,[r0,#0]
        0x000029d0:    2201        ."      MOVS     r2,#1
        0x000029d2:    0412        ..      LSLS     r2,r2,#16
        0x000029d4:    4311        .C      ORRS     r1,r1,r2
        0x000029d6:    6001        .`      STR      r1,[r0,#0]
        0x000029d8:    4804        .H      LDR      r0,[pc,#16] ; [0x29ec] = 0x20000210
        0x000029da:    6901        .i      LDR      r1,[r0,#0x10]
        0x000029dc:    2900        .)      CMP      r1,#0
        0x000029de:    d001        ..      BEQ      0x29e4 ; SPI1_IRQHandler + 24
        0x000029e0:    6940        @i      LDR      r0,[r0,#0x14]
        0x000029e2:    4708        .G      BX       r1
        0x000029e4:    4770        pG      BX       lr
    $d
        0x000029e6:    0000        ..      DCW    0
        0x000029e8:    40034000    .@.@    DCD    1073954816
        0x000029ec:    20000210    ...     DCD    536871440
    $t
    i.SendChar
    SendChar
        0x000029f0:    b500        ..      PUSH     {lr}
        0x000029f2:    f000f801    ....    BL       SendChar_ToUART ; 0x29f8
        0x000029f6:    bd00        ..      POP      {pc}
    i.SendChar_ToUART
    SendChar_ToUART
        0x000029f8:    4906        .I      LDR      r1,[pc,#24] ; [0x2a14] = 0x40050000
        0x000029fa:    698a        .i      LDR      r2,[r1,#0x18]
        0x000029fc:    0212        ..      LSLS     r2,r2,#8
        0x000029fe:    d4fc        ..      BMI      0x29fa ; SendChar_ToUART + 2
        0x00002a00:    6008        .`      STR      r0,[r1,#0]
        0x00002a02:    280a        .(      CMP      r0,#0xa
        0x00002a04:    d104        ..      BNE      0x2a10 ; SendChar_ToUART + 24
        0x00002a06:    6988        .i      LDR      r0,[r1,#0x18]
        0x00002a08:    0200        ..      LSLS     r0,r0,#8
        0x00002a0a:    d4fc        ..      BMI      0x2a06 ; SendChar_ToUART + 14
        0x00002a0c:    200d        .       MOVS     r0,#0xd
        0x00002a0e:    6008        .`      STR      r0,[r1,#0]
        0x00002a10:    4770        pG      BX       lr
    $d
        0x00002a12:    0000        ..      DCW    0
        0x00002a14:    40050000    ...@    DCD    1074069504
    $t
    i.SetBL_PWM
    SetBL_PWM
        0x00002a18:    4901        .I      LDR      r1,[pc,#4] ; [0x2a20] = 0x40040000
        0x00002a1a:    6108        .a      STR      r0,[r1,#0x10]
        0x00002a1c:    4770        pG      BX       lr
    $d
        0x00002a1e:    0000        ..      DCW    0
        0x00002a20:    40040000    ...@    DCD    1074003968
    $t
    i.SystemInit
    SystemInit
        0x00002a24:    4770        pG      BX       lr
        0x00002a26:    0000        ..      MOVS     r0,r0
    i.TMR0_IRQHandler
    TMR0_IRQHandler
        0x00002a28:    b570        p.      PUSH     {r4-r6,lr}
        0x00002a2a:    4911        .I      LDR      r1,[pc,#68] ; [0x2a70] = 0x40010000
        0x00002a2c:    6888        .h      LDR      r0,[r1,#8]
        0x00002a2e:    2201        ."      MOVS     r2,#1
        0x00002a30:    4310        .C      ORRS     r0,r0,r2
        0x00002a32:    6088        .`      STR      r0,[r1,#8]
        0x00002a34:    480f        .H      LDR      r0,[pc,#60] ; [0x2a74] = 0x20000060
        0x00002a36:    6b01        .k      LDR      r1,[r0,#0x30]
        0x00002a38:    1c49        I.      ADDS     r1,r1,#1
        0x00002a3a:    6301        .c      STR      r1,[r0,#0x30]
        0x00002a3c:    6a00        .j      LDR      r0,[r0,#0x20]
        0x00002a3e:    2800        .(      CMP      r0,#0
        0x00002a40:    d015        ..      BEQ      0x2a6e ; TMR0_IRQHandler + 70
        0x00002a42:    2500        .%      MOVS     r5,#0
        0x00002a44:    4e0c        .N      LDR      r6,[pc,#48] ; [0x2a78] = 0x20000228
        0x00002a46:    4628        (F      MOV      r0,r5
        0x00002a48:    2114        .!      MOVS     r1,#0x14
        0x00002a4a:    4348        HC      MULS     r0,r1,r0
        0x00002a4c:    5831        1X      LDR      r1,[r6,r0]
        0x00002a4e:    2900        .)      CMP      r1,#0
        0x00002a50:    d00a        ..      BEQ      0x2a68 ; TMR0_IRQHandler + 64
        0x00002a52:    1984        ..      ADDS     r4,r0,r6
        0x00002a54:    68a0        .h      LDR      r0,[r4,#8]
        0x00002a56:    1e40        @.      SUBS     r0,r0,#1
        0x00002a58:    60a0        .`      STR      r0,[r4,#8]
        0x00002a5a:    2800        .(      CMP      r0,#0
        0x00002a5c:    d104        ..      BNE      0x2a68 ; TMR0_IRQHandler + 64
        0x00002a5e:    68e1        .h      LDR      r1,[r4,#0xc]
        0x00002a60:    6920         i      LDR      r0,[r4,#0x10]
        0x00002a62:    4788        .G      BLX      r1
        0x00002a64:    6860        `h      LDR      r0,[r4,#4]
        0x00002a66:    60a0        .`      STR      r0,[r4,#8]
        0x00002a68:    1c6d        m.      ADDS     r5,r5,#1
        0x00002a6a:    2d01        .-      CMP      r5,#1
        0x00002a6c:    dbeb        ..      BLT      0x2a46 ; TMR0_IRQHandler + 30
        0x00002a6e:    bd70        p.      POP      {r4-r6,pc}
    $d
        0x00002a70:    40010000    ...@    DCD    1073807360
        0x00002a74:    20000060    `..     DCD    536871008
        0x00002a78:    20000228    (..     DCD    536871464
    $t
    i.TMR1_IRQHandler
    TMR1_IRQHandler
        0x00002a7c:    b570        p.      PUSH     {r4-r6,lr}
        0x00002a7e:    4911        .I      LDR      r1,[pc,#68] ; [0x2ac4] = 0x40010000
        0x00002a80:    6a88        .j      LDR      r0,[r1,#0x28]
        0x00002a82:    2201        ."      MOVS     r2,#1
        0x00002a84:    4310        .C      ORRS     r0,r0,r2
        0x00002a86:    6288        .b      STR      r0,[r1,#0x28]
        0x00002a88:    480f        .H      LDR      r0,[pc,#60] ; [0x2ac8] = 0x20000060
        0x00002a8a:    6b41        Ak      LDR      r1,[r0,#0x34]
        0x00002a8c:    1c49        I.      ADDS     r1,r1,#1
        0x00002a8e:    6341        Ac      STR      r1,[r0,#0x34]
        0x00002a90:    6a40        @j      LDR      r0,[r0,#0x24]
        0x00002a92:    2800        .(      CMP      r0,#0
        0x00002a94:    d015        ..      BEQ      0x2ac2 ; TMR1_IRQHandler + 70
        0x00002a96:    2500        .%      MOVS     r5,#0
        0x00002a98:    4e0c        .N      LDR      r6,[pc,#48] ; [0x2acc] = 0x2000023c
        0x00002a9a:    4628        (F      MOV      r0,r5
        0x00002a9c:    2114        .!      MOVS     r1,#0x14
        0x00002a9e:    4348        HC      MULS     r0,r1,r0
        0x00002aa0:    5831        1X      LDR      r1,[r6,r0]
        0x00002aa2:    2900        .)      CMP      r1,#0
        0x00002aa4:    d00a        ..      BEQ      0x2abc ; TMR1_IRQHandler + 64
        0x00002aa6:    1984        ..      ADDS     r4,r0,r6
        0x00002aa8:    68a0        .h      LDR      r0,[r4,#8]
        0x00002aaa:    1e40        @.      SUBS     r0,r0,#1
        0x00002aac:    60a0        .`      STR      r0,[r4,#8]
        0x00002aae:    2800        .(      CMP      r0,#0
        0x00002ab0:    d104        ..      BNE      0x2abc ; TMR1_IRQHandler + 64
        0x00002ab2:    68e1        .h      LDR      r1,[r4,#0xc]
        0x00002ab4:    6920         i      LDR      r0,[r4,#0x10]
        0x00002ab6:    4788        .G      BLX      r1
        0x00002ab8:    6860        `h      LDR      r0,[r4,#4]
        0x00002aba:    60a0        .`      STR      r0,[r4,#8]
        0x00002abc:    1c6d        m.      ADDS     r5,r5,#1
        0x00002abe:    2d01        .-      CMP      r5,#1
        0x00002ac0:    dbeb        ..      BLT      0x2a9a ; TMR1_IRQHandler + 30
        0x00002ac2:    bd70        p.      POP      {r4-r6,pc}
    $d
        0x00002ac4:    40010000    ...@    DCD    1073807360
        0x00002ac8:    20000060    `..     DCD    536871008
        0x00002acc:    2000023c    <..     DCD    536871484
    $t
    i.TMR2_IRQHandler
    TMR2_IRQHandler
        0x00002ad0:    b570        p.      PUSH     {r4-r6,lr}
        0x00002ad2:    4911        .I      LDR      r1,[pc,#68] ; [0x2b18] = 0x40110000
        0x00002ad4:    6888        .h      LDR      r0,[r1,#8]
        0x00002ad6:    2201        ."      MOVS     r2,#1
        0x00002ad8:    4310        .C      ORRS     r0,r0,r2
        0x00002ada:    6088        .`      STR      r0,[r1,#8]
        0x00002adc:    480f        .H      LDR      r0,[pc,#60] ; [0x2b1c] = 0x20000060
        0x00002ade:    6b81        .k      LDR      r1,[r0,#0x38]
        0x00002ae0:    1c49        I.      ADDS     r1,r1,#1
        0x00002ae2:    6381        .c      STR      r1,[r0,#0x38]
        0x00002ae4:    6a80        .j      LDR      r0,[r0,#0x28]
        0x00002ae6:    2800        .(      CMP      r0,#0
        0x00002ae8:    d015        ..      BEQ      0x2b16 ; TMR2_IRQHandler + 70
        0x00002aea:    2500        .%      MOVS     r5,#0
        0x00002aec:    4e0c        .N      LDR      r6,[pc,#48] ; [0x2b20] = 0x20000250
        0x00002aee:    4628        (F      MOV      r0,r5
        0x00002af0:    2114        .!      MOVS     r1,#0x14
        0x00002af2:    4348        HC      MULS     r0,r1,r0
        0x00002af4:    5831        1X      LDR      r1,[r6,r0]
        0x00002af6:    2900        .)      CMP      r1,#0
        0x00002af8:    d00a        ..      BEQ      0x2b10 ; TMR2_IRQHandler + 64
        0x00002afa:    1984        ..      ADDS     r4,r0,r6
        0x00002afc:    68a0        .h      LDR      r0,[r4,#8]
        0x00002afe:    1e40        @.      SUBS     r0,r0,#1
        0x00002b00:    60a0        .`      STR      r0,[r4,#8]
        0x00002b02:    2800        .(      CMP      r0,#0
        0x00002b04:    d104        ..      BNE      0x2b10 ; TMR2_IRQHandler + 64
        0x00002b06:    68e1        .h      LDR      r1,[r4,#0xc]
        0x00002b08:    6920         i      LDR      r0,[r4,#0x10]
        0x00002b0a:    4788        .G      BLX      r1
        0x00002b0c:    6860        `h      LDR      r0,[r4,#4]
        0x00002b0e:    60a0        .`      STR      r0,[r4,#8]
        0x00002b10:    1c6d        m.      ADDS     r5,r5,#1
        0x00002b12:    2d01        .-      CMP      r5,#1
        0x00002b14:    dbeb        ..      BLT      0x2aee ; TMR2_IRQHandler + 30
        0x00002b16:    bd70        p.      POP      {r4-r6,pc}
    $d
        0x00002b18:    40110000    ...@    DCD    1074855936
        0x00002b1c:    20000060    `..     DCD    536871008
        0x00002b20:    20000250    P..     DCD    536871504
    $t
    i.TMR3_IRQHandler
    TMR3_IRQHandler
        0x00002b24:    b570        p.      PUSH     {r4-r6,lr}
        0x00002b26:    4911        .I      LDR      r1,[pc,#68] ; [0x2b6c] = 0x40110000
        0x00002b28:    6a88        .j      LDR      r0,[r1,#0x28]
        0x00002b2a:    2201        ."      MOVS     r2,#1
        0x00002b2c:    4310        .C      ORRS     r0,r0,r2
        0x00002b2e:    6288        .b      STR      r0,[r1,#0x28]
        0x00002b30:    480f        .H      LDR      r0,[pc,#60] ; [0x2b70] = 0x20000060
        0x00002b32:    6bc1        .k      LDR      r1,[r0,#0x3c]
        0x00002b34:    1c49        I.      ADDS     r1,r1,#1
        0x00002b36:    63c1        .c      STR      r1,[r0,#0x3c]
        0x00002b38:    6ac0        .j      LDR      r0,[r0,#0x2c]
        0x00002b3a:    2800        .(      CMP      r0,#0
        0x00002b3c:    d015        ..      BEQ      0x2b6a ; TMR3_IRQHandler + 70
        0x00002b3e:    2500        .%      MOVS     r5,#0
        0x00002b40:    4e0c        .N      LDR      r6,[pc,#48] ; [0x2b74] = 0x20000264
        0x00002b42:    4628        (F      MOV      r0,r5
        0x00002b44:    2114        .!      MOVS     r1,#0x14
        0x00002b46:    4348        HC      MULS     r0,r1,r0
        0x00002b48:    5831        1X      LDR      r1,[r6,r0]
        0x00002b4a:    2900        .)      CMP      r1,#0
        0x00002b4c:    d00a        ..      BEQ      0x2b64 ; TMR3_IRQHandler + 64
        0x00002b4e:    1984        ..      ADDS     r4,r0,r6
        0x00002b50:    68a0        .h      LDR      r0,[r4,#8]
        0x00002b52:    1e40        @.      SUBS     r0,r0,#1
        0x00002b54:    60a0        .`      STR      r0,[r4,#8]
        0x00002b56:    2800        .(      CMP      r0,#0
        0x00002b58:    d104        ..      BNE      0x2b64 ; TMR3_IRQHandler + 64
        0x00002b5a:    68e1        .h      LDR      r1,[r4,#0xc]
        0x00002b5c:    6920         i      LDR      r0,[r4,#0x10]
        0x00002b5e:    4788        .G      BLX      r1
        0x00002b60:    6860        `h      LDR      r0,[r4,#4]
        0x00002b62:    60a0        .`      STR      r0,[r4,#8]
        0x00002b64:    1c6d        m.      ADDS     r5,r5,#1
        0x00002b66:    2d01        .-      CMP      r5,#1
        0x00002b68:    dbeb        ..      BLT      0x2b42 ; TMR3_IRQHandler + 30
        0x00002b6a:    bd70        p.      POP      {r4-r6,pc}
    $d
        0x00002b6c:    40110000    ...@    DCD    1074855936
        0x00002b70:    20000060    `..     DCD    536871008
        0x00002b74:    20000264    d..     DCD    536871524
    $t
    i.Time_Callback2
    Time_Callback2
        0x00002b78:    b510        ..      PUSH     {r4,lr}
        0x00002b7a:    490f        .I      LDR      r1,[pc,#60] ; [0x2bb8] = 0x20000022
        0x00002b7c:    2001        .       MOVS     r0,#1
        0x00002b7e:    7008        .p      STRB     r0,[r1,#0]
        0x00002b80:    480e        .H      LDR      r0,[pc,#56] ; [0x2bbc] = 0x2000002a
        0x00002b82:    7800        .x      LDRB     r0,[r0,#0]
        0x00002b84:    2801        .(      CMP      r0,#1
        0x00002b86:    d109        ..      BNE      0x2b9c ; Time_Callback2 + 36
        0x00002b88:    2102        .!      MOVS     r1,#2
        0x00002b8a:    2003        .       MOVS     r0,#3
        0x00002b8c:    f7fefe4c    ..L.    BL       DrvGPIO_GetBit ; 0x1828
        0x00002b90:    2800        .(      CMP      r0,#0
        0x00002b92:    d00c        ..      BEQ      0x2bae ; Time_Callback2 + 54
        0x00002b94:    2102        .!      MOVS     r1,#2
        0x00002b96:    2003        .       MOVS     r0,#3
        0x00002b98:    f7fefe3a    ..:.    BL       DrvGPIO_ClrBit ; 0x1810
        0x00002b9c:    2101        .!      MOVS     r1,#1
        0x00002b9e:    2050        P       MOVS     r0,#0x50
        0x00002ba0:    f000fc3e    ..>.    BL       readonebyte ; 0x3420
        0x00002ba4:    4601        .F      MOV      r1,r0
        0x00002ba6:    a006        ..      ADR      r0,{pc}+0x1a ; 0x2bc0
        0x00002ba8:    f7fdfb20    .. .    BL       __2printf ; 0x1ec
        0x00002bac:    bd10        ..      POP      {r4,pc}
        0x00002bae:    2102        .!      MOVS     r1,#2
        0x00002bb0:    2003        .       MOVS     r0,#3
        0x00002bb2:    f7feff45    ..E.    BL       DrvGPIO_SetBit ; 0x1a40
        0x00002bb6:    e7f1        ..      B        0x2b9c ; Time_Callback2 + 36
    $d
        0x00002bb8:    20000022    "..     DCD    536870946
        0x00002bbc:    2000002a    *..     DCD    536870954
        0x00002bc0:    206f6857    Who     DCD    544172119
        0x00002bc4:    49206d61    am I    DCD    1226861921
        0x00002bc8:    0d78253a    :%x.    DCD    225977658
        0x00002bcc:    0000000a    ....    DCD    10
    $t
    i.UART0_INT_HANDLE
    UART0_INT_HANDLE
        0x00002bd0:    b5fe        ..      PUSH     {r1-r7,lr}
        0x00002bd2:    2400        .$      MOVS     r4,#0
        0x00002bd4:    4f48        HO      LDR      r7,[pc,#288] ; [0x2cf8] = 0x40050000
        0x00002bd6:    6878        xh      LDR      r0,[r7,#4]
        0x00002bd8:    0840        @.      LSRS     r0,r0,#1
        0x00002bda:    0040        @.      LSLS     r0,r0,#1
        0x00002bdc:    6078        x`      STR      r0,[r7,#4]
        0x00002bde:    69f8        .i      LDR      r0,[r7,#0x1c]
        0x00002be0:    2601        .&      MOVS     r6,#1
        0x00002be2:    07c0        ..      LSLS     r0,r0,#31
        0x00002be4:    2800        .(      CMP      r0,#0
        0x00002be6:    d05e        ^.      BEQ      0x2ca6 ; UART0_INT_HANDLE + 214
        0x00002be8:    2102        .!      MOVS     r1,#2
        0x00002bea:    2000        .       MOVS     r0,#0
        0x00002bec:    f7fefe1c    ....    BL       DrvGPIO_GetBit ; 0x1828
        0x00002bf0:    4d42        BM      LDR      r5,[pc,#264] ; [0x2cfc] = 0x2000002e
        0x00002bf2:    2801        .(      CMP      r0,#1
        0x00002bf4:    d011        ..      BEQ      0x2c1a ; UART0_INT_HANDLE + 74
        0x00002bf6:    20f2        .       MOVS     r0,#0xf2
        0x00002bf8:    71e8        .q      STRB     r0,[r5,#7]
        0x00002bfa:    4841        AH      LDR      r0,[pc,#260] ; [0x2d00] = 0x2000002a
        0x00002bfc:    7006        .p      STRB     r6,[r0,#0]
        0x00002bfe:    2201        ."      MOVS     r2,#1
        0x00002c00:    a901        ..      ADD      r1,sp,#4
        0x00002c02:    2000        .       MOVS     r0,#0
        0x00002c04:    f7fffb66    ..f.    BL       DrvUART_Read ; 0x22d4
        0x00002c08:    4668        hF      MOV      r0,sp
        0x00002c0a:    7900        .y      LDRB     r0,[r0,#4]
        0x00002c0c:    28aa        .(      CMP      r0,#0xaa
        0x00002c0e:    d01e        ..      BEQ      0x2c4e ; UART0_INT_HANDLE + 126
        0x00002c10:    6878        xh      LDR      r0,[r7,#4]
        0x00002c12:    4330        0C      ORRS     r0,r0,r6
        0x00002c14:    6078        x`      STR      r0,[r7,#4]
        0x00002c16:    2000        .       MOVS     r0,#0
        0x00002c18:    bdfe        ..      POP      {r1-r7,pc}
        0x00002c1a:    2101        .!      MOVS     r1,#1
        0x00002c1c:    2000        .       MOVS     r0,#0
        0x00002c1e:    f7fefe03    ....    BL       DrvGPIO_GetBit ; 0x1828
        0x00002c22:    2801        .(      CMP      r0,#1
        0x00002c24:    d009        ..      BEQ      0x2c3a ; UART0_INT_HANDLE + 106
        0x00002c26:    20f0        .       MOVS     r0,#0xf0
        0x00002c28:    71e8        .q      STRB     r0,[r5,#7]
        0x00002c2a:    2102        .!      MOVS     r1,#2
        0x00002c2c:    2003        .       MOVS     r0,#3
        0x00002c2e:    f7fefdef    ....    BL       DrvGPIO_ClrBit ; 0x1810
        0x00002c32:    4933        3I      LDR      r1,[pc,#204] ; [0x2d00] = 0x2000002a
        0x00002c34:    2000        .       MOVS     r0,#0
        0x00002c36:    7008        .p      STRB     r0,[r1,#0]
        0x00002c38:    e7e1        ..      B        0x2bfe ; UART0_INT_HANDLE + 46
        0x00002c3a:    20f5        .       MOVS     r0,#0xf5
        0x00002c3c:    71e8        .q      STRB     r0,[r5,#7]
        0x00002c3e:    2102        .!      MOVS     r1,#2
        0x00002c40:    2003        .       MOVS     r0,#3
        0x00002c42:    f7fefefd    ....    BL       DrvGPIO_SetBit ; 0x1a40
        0x00002c46:    492e        .I      LDR      r1,[pc,#184] ; [0x2d00] = 0x2000002a
        0x00002c48:    2000        .       MOVS     r0,#0
        0x00002c4a:    7008        .p      STRB     r0,[r1,#0]
        0x00002c4c:    e7d7        ..      B        0x2bfe ; UART0_INT_HANDLE + 46
        0x00002c4e:    2201        ."      MOVS     r2,#1
        0x00002c50:    4669        iF      MOV      r1,sp
        0x00002c52:    2000        .       MOVS     r0,#0
        0x00002c54:    f7fffb3e    ..>.    BL       DrvUART_Read ; 0x22d4
        0x00002c58:    4668        hF      MOV      r0,sp
        0x00002c5a:    7900        .y      LDRB     r0,[r0,#4]
        0x00002c5c:    28aa        .(      CMP      r0,#0xaa
        0x00002c5e:    d146        F.      BNE      0x2cee ; UART0_INT_HANDLE + 286
        0x00002c60:    4668        hF      MOV      r0,sp
        0x00002c62:    7801        .x      LDRB     r1,[r0,#0]
        0x00002c64:    4825        %H      LDR      r0,[pc,#148] ; [0x2cfc] = 0x2000002e
        0x00002c66:    79c0        .y      LDRB     r0,[r0,#7]
        0x00002c68:    4281        .B      CMP      r1,r0
        0x00002c6a:    d140        @.      BNE      0x2cee ; UART0_INT_HANDLE + 286
        0x00002c6c:    2204        ."      MOVS     r2,#4
        0x00002c6e:    4925        %I      LDR      r1,[pc,#148] ; [0x2d04] = 0x20000164
        0x00002c70:    2000        .       MOVS     r0,#0
        0x00002c72:    f7fffb2f    ../.    BL       DrvUART_Read ; 0x22d4
        0x00002c76:    4d23        #M      LDR      r5,[pc,#140] ; [0x2d04] = 0x20000164
        0x00002c78:    2000        .       MOVS     r0,#0
        0x00002c7a:    78aa        .x      LDRB     r2,[r5,#2]
        0x00002c7c:    1d29        ).      ADDS     r1,r5,#4
        0x00002c7e:    f7fffb29    ..).    BL       DrvUART_Read ; 0x22d4
        0x00002c82:    2000        .       MOVS     r0,#0
        0x00002c84:    78aa        .x      LDRB     r2,[r5,#2]
        0x00002c86:    1cd1        ..      ADDS     r1,r2,#3
        0x00002c88:    e004        ..      B        0x2c94 ; UART0_INT_HANDLE + 196
        0x00002c8a:    5c2b        +\      LDRB     r3,[r5,r0]
        0x00002c8c:    191b        ..      ADDS     r3,r3,r4
        0x00002c8e:    b2dc        ..      UXTB     r4,r3
        0x00002c90:    1c40        @.      ADDS     r0,r0,#1
        0x00002c92:    b2c0        ..      UXTB     r0,r0
        0x00002c94:    4281        .B      CMP      r1,r0
        0x00002c96:    d8f8        ..      BHI      0x2c8a ; UART0_INT_HANDLE + 186
        0x00002c98:    481a        .H      LDR      r0,[pc,#104] ; [0x2d04] = 0x20000164
        0x00002c9a:    491b        .I      LDR      r1,[pc,#108] ; [0x2d08] = 0x20000028
        0x00002c9c:    1cc0        ..      ADDS     r0,r0,#3
        0x00002c9e:    5c10        .\      LDRB     r0,[r2,r0]
        0x00002ca0:    42a0        .B      CMP      r0,r4
        0x00002ca2:    d101        ..      BNE      0x2ca8 ; UART0_INT_HANDLE + 216
        0x00002ca4:    700e        .p      STRB     r6,[r1,#0]
        0x00002ca6:    e022        ".      B        0x2cee ; UART0_INT_HANDLE + 286
        0x00002ca8:    2000        .       MOVS     r0,#0
        0x00002caa:    7008        .p      STRB     r0,[r1,#0]
        0x00002cac:    4915        .I      LDR      r1,[pc,#84] ; [0x2d04] = 0x20000164
        0x00002cae:    22aa        ."      MOVS     r2,#0xaa
        0x00002cb0:    3114        .1      ADDS     r1,r1,#0x14
        0x00002cb2:    700a        .p      STRB     r2,[r1,#0]
        0x00002cb4:    22ff        ."      MOVS     r2,#0xff
        0x00002cb6:    704a        Jp      STRB     r2,[r1,#1]
        0x00002cb8:    4a10        .J      LDR      r2,[pc,#64] ; [0x2cfc] = 0x2000002e
        0x00002cba:    79d2        .y      LDRB     r2,[r2,#7]
        0x00002cbc:    708a        .p      STRB     r2,[r1,#2]
        0x00002cbe:    2203        ."      MOVS     r2,#3
        0x00002cc0:    70ca        .p      STRB     r2,[r1,#3]
        0x00002cc2:    224e        N"      MOVS     r2,#0x4e
        0x00002cc4:    710a        .q      STRB     r2,[r1,#4]
        0x00002cc6:    782a        *x      LDRB     r2,[r5,#0]
        0x00002cc8:    714a        Jq      STRB     r2,[r1,#5]
        0x00002cca:    2245        E"      MOVS     r2,#0x45
        0x00002ccc:    718a        .q      STRB     r2,[r1,#6]
        0x00002cce:    71c8        .q      STRB     r0,[r1,#7]
        0x00002cd0:    2001        .       MOVS     r0,#1
        0x00002cd2:    79ca        .y      LDRB     r2,[r1,#7]
        0x00002cd4:    5c0b        .\      LDRB     r3,[r1,r0]
        0x00002cd6:    18d2        ..      ADDS     r2,r2,r3
        0x00002cd8:    71ca        .q      STRB     r2,[r1,#7]
        0x00002cda:    1c40        @.      ADDS     r0,r0,#1
        0x00002cdc:    b2c0        ..      UXTB     r0,r0
        0x00002cde:    2807        .(      CMP      r0,#7
        0x00002ce0:    d3f7        ..      BCC      0x2cd2 ; UART0_INT_HANDLE + 258
        0x00002ce2:    4908        .I      LDR      r1,[pc,#32] ; [0x2d04] = 0x20000164
        0x00002ce4:    2208        ."      MOVS     r2,#8
        0x00002ce6:    3114        .1      ADDS     r1,r1,#0x14
        0x00002ce8:    2000        .       MOVS     r0,#0
        0x00002cea:    f7fffb5f    .._.    BL       DrvUART_Write ; 0x23ac
        0x00002cee:    6878        xh      LDR      r0,[r7,#4]
        0x00002cf0:    4330        0C      ORRS     r0,r0,r6
        0x00002cf2:    6078        x`      STR      r0,[r7,#4]
        0x00002cf4:    bdfe        ..      POP      {r1-r7,pc}
    $d
        0x00002cf6:    0000        ..      DCW    0
        0x00002cf8:    40050000    ...@    DCD    1074069504
        0x00002cfc:    2000002e    ...     DCD    536870958
        0x00002d00:    2000002a    *..     DCD    536870954
        0x00002d04:    20000164    d..     DCD    536871268
        0x00002d08:    20000028    (..     DCD    536870952
    $t
    i.UART0_IRQHandler
    UART0_IRQHandler
        0x00002d0c:    4803        .H      LDR      r0,[pc,#12] ; [0x2d1c] = 0x40050000
        0x00002d0e:    69c0        .i      LDR      r0,[r0,#0x1c]
        0x00002d10:    4903        .I      LDR      r1,[pc,#12] ; [0x2d20] = 0x200000c8
        0x00002d12:    6809        .h      LDR      r1,[r1,#0]
        0x00002d14:    2900        .)      CMP      r1,#0
        0x00002d16:    d000        ..      BEQ      0x2d1a ; UART0_IRQHandler + 14
        0x00002d18:    4708        .G      BX       r1
        0x00002d1a:    4770        pG      BX       lr
    $d
        0x00002d1c:    40050000    ...@    DCD    1074069504
        0x00002d20:    200000c8    ...     DCD    536871112
    $t
    i.UART1_INT_HANDLE
    UART1_INT_HANDLE
        0x00002d24:    b5f8        ..      PUSH     {r3-r7,lr}
        0x00002d26:    2400        .$      MOVS     r4,#0
        0x00002d28:    4d16        .M      LDR      r5,[pc,#88] ; [0x2d84] = 0x40150000
        0x00002d2a:    6868        hh      LDR      r0,[r5,#4]
        0x00002d2c:    0840        @.      LSRS     r0,r0,#1
        0x00002d2e:    0040        @.      LSLS     r0,r0,#1
        0x00002d30:    6068        h`      STR      r0,[r5,#4]
        0x00002d32:    69e8        .i      LDR      r0,[r5,#0x1c]
        0x00002d34:    2601        .&      MOVS     r6,#1
        0x00002d36:    07c0        ..      LSLS     r0,r0,#31
        0x00002d38:    2800        .(      CMP      r0,#0
        0x00002d3a:    d01f        ..      BEQ      0x2d7c ; UART1_INT_HANDLE + 88
        0x00002d3c:    2201        ."      MOVS     r2,#1
        0x00002d3e:    0517        ..      LSLS     r7,r2,#20
        0x00002d40:    4669        iF      MOV      r1,sp
        0x00002d42:    4638        8F      MOV      r0,r7
        0x00002d44:    f7fffac6    ....    BL       DrvUART_Read ; 0x22d4
        0x00002d48:    4668        hF      MOV      r0,sp
        0x00002d4a:    7800        .x      LDRB     r0,[r0,#0]
        0x00002d4c:    2823        #(      CMP      r0,#0x23
        0x00002d4e:    d115        ..      BNE      0x2d7c ; UART1_INT_HANDLE + 88
        0x00002d50:    2207        ."      MOVS     r2,#7
        0x00002d52:    490d        .I      LDR      r1,[pc,#52] ; [0x2d88] = 0x2000018c
        0x00002d54:    4638        8F      MOV      r0,r7
        0x00002d56:    f7fffabd    ....    BL       DrvUART_Read ; 0x22d4
        0x00002d5a:    2000        .       MOVS     r0,#0
        0x00002d5c:    490a        .I      LDR      r1,[pc,#40] ; [0x2d88] = 0x2000018c
        0x00002d5e:    5c0a        .\      LDRB     r2,[r1,r0]
        0x00002d60:    1912        ..      ADDS     r2,r2,r4
        0x00002d62:    b2d4        ..      UXTB     r4,r2
        0x00002d64:    1c40        @.      ADDS     r0,r0,#1
        0x00002d66:    b2c0        ..      UXTB     r0,r0
        0x00002d68:    2806        .(      CMP      r0,#6
        0x00002d6a:    d3f8        ..      BCC      0x2d5e ; UART1_INT_HANDLE + 58
        0x00002d6c:    7989        .y      LDRB     r1,[r1,#6]
        0x00002d6e:    4807        .H      LDR      r0,[pc,#28] ; [0x2d8c] = 0x20000029
        0x00002d70:    42a1        .B      CMP      r1,r4
        0x00002d72:    d101        ..      BNE      0x2d78 ; UART1_INT_HANDLE + 84
        0x00002d74:    7006        .p      STRB     r6,[r0,#0]
        0x00002d76:    e001        ..      B        0x2d7c ; UART1_INT_HANDLE + 88
        0x00002d78:    2100        .!      MOVS     r1,#0
        0x00002d7a:    7001        .p      STRB     r1,[r0,#0]
        0x00002d7c:    6868        hh      LDR      r0,[r5,#4]
        0x00002d7e:    4330        0C      ORRS     r0,r0,r6
        0x00002d80:    6068        h`      STR      r0,[r5,#4]
        0x00002d82:    bdf8        ..      POP      {r3-r7,pc}
    $d
        0x00002d84:    40150000    ...@    DCD    1075118080
        0x00002d88:    2000018c    ...     DCD    536871308
        0x00002d8c:    20000029    )..     DCD    536870953
    $t
    i.UART1_IRQHandler
    UART1_IRQHandler
        0x00002d90:    4803        .H      LDR      r0,[pc,#12] ; [0x2da0] = 0x40150000
        0x00002d92:    69c0        .i      LDR      r0,[r0,#0x1c]
        0x00002d94:    4903        .I      LDR      r1,[pc,#12] ; [0x2da4] = 0x200000c8
        0x00002d96:    6849        Ih      LDR      r1,[r1,#4]
        0x00002d98:    2900        .)      CMP      r1,#0
        0x00002d9a:    d000        ..      BEQ      0x2d9e ; UART1_IRQHandler + 14
        0x00002d9c:    4708        .G      BX       r1
        0x00002d9e:    4770        pG      BX       lr
    $d
        0x00002da0:    40150000    ...@    DCD    1075118080
        0x00002da4:    200000c8    ...     DCD    536871112
    $t
    i.UART_init
    UART_init
        0x00002da8:    b530        0.      PUSH     {r4,r5,lr}
        0x00002daa:    b085        ..      SUB      sp,sp,#0x14
        0x00002dac:    2013        .       MOVS     r0,#0x13
        0x00002dae:    f7fefd45    ..E.    BL       DrvGPIO_InitFunction ; 0x183c
        0x00002db2:    2014        .       MOVS     r0,#0x14
        0x00002db4:    f7fefd42    ..B.    BL       DrvGPIO_InitFunction ; 0x183c
        0x00002db8:    204b        K       MOVS     r0,#0x4b
        0x00002dba:    01c0        ..      LSLS     r0,r0,#7
        0x00002dbc:    9002        ..      STR      r0,[sp,#8]
        0x00002dbe:    2003        .       MOVS     r0,#3
        0x00002dc0:    4669        iF      MOV      r1,sp
        0x00002dc2:    7308        .s      STRB     r0,[r1,#0xc]
        0x00002dc4:    2400        .$      MOVS     r4,#0
        0x00002dc6:    734c        Ls      STRB     r4,[r1,#0xd]
        0x00002dc8:    738c        .s      STRB     r4,[r1,#0xe]
        0x00002dca:    73cc        .s      STRB     r4,[r1,#0xf]
        0x00002dcc:    2501        .%      MOVS     r5,#1
        0x00002dce:    052d        -.      LSLS     r5,r5,#20
        0x00002dd0:    a902        ..      ADD      r1,sp,#8
        0x00002dd2:    4628        (F      MOV      r0,r5
        0x00002dd4:    f7fff9ce    ....    BL       DrvUART_Open ; 0x2174
        0x00002dd8:    2800        .(      CMP      r0,#0
        0x00002dda:    d005        ..      BEQ      0x2de8 ; UART_init + 64
        0x00002ddc:    a015        ..      ADR      r0,{pc}+0x58 ; 0x2e34
        0x00002dde:    f7fdfa05    ....    BL       __2printf ; 0x1ec
        0x00002de2:    2000        .       MOVS     r0,#0
        0x00002de4:    b005        ..      ADD      sp,sp,#0x14
        0x00002de6:    bd30        0.      POP      {r4,r5,pc}
        0x00002de8:    20e1        .       MOVS     r0,#0xe1
        0x00002dea:    0240        @.      LSLS     r0,r0,#9
        0x00002dec:    9002        ..      STR      r0,[sp,#8]
        0x00002dee:    a902        ..      ADD      r1,sp,#8
        0x00002df0:    2000        .       MOVS     r0,#0
        0x00002df2:    f7fff9bf    ....    BL       DrvUART_Open ; 0x2174
        0x00002df6:    2800        .(      CMP      r0,#0
        0x00002df8:    d004        ..      BEQ      0x2e04 ; UART_init + 92
        0x00002dfa:    a013        ..      ADR      r0,{pc}+0x4e ; 0x2e48
        0x00002dfc:    f7fdf9f6    ....    BL       __2printf ; 0x1ec
        0x00002e00:    2000        .       MOVS     r0,#0
        0x00002e02:    e7ef        ..      B        0x2de4 ; UART_init + 60
        0x00002e04:    2001        .       MOVS     r0,#1
        0x00002e06:    4669        iF      MOV      r1,sp
        0x00002e08:    7048        Hp      STRB     r0,[r1,#1]
        0x00002e0a:    708c        .p      STRB     r4,[r1,#2]
        0x00002e0c:    2006        .       MOVS     r0,#6
        0x00002e0e:    7008        .p      STRB     r0,[r1,#0]
        0x00002e10:    70cc        .p      STRB     r4,[r1,#3]
        0x00002e12:    710c        .q      STRB     r4,[r1,#4]
        0x00002e14:    2000        .       MOVS     r0,#0
        0x00002e16:    f7fffa79    ..y.    BL       DrvUART_SetFnRS485 ; 0x230c
        0x00002e1a:    4a10        .J      LDR      r2,[pc,#64] ; [0x2e5c] = 0x2d25
        0x00002e1c:    2101        .!      MOVS     r1,#1
        0x00002e1e:    4628        (F      MOV      r0,r5
        0x00002e20:    f7fff93a    ..:.    BL       DrvUART_EnableInt ; 0x2098
        0x00002e24:    4a0e        .J      LDR      r2,[pc,#56] ; [0x2e60] = 0x2bd1
        0x00002e26:    2101        .!      MOVS     r1,#1
        0x00002e28:    2000        .       MOVS     r0,#0
        0x00002e2a:    f7fff935    ..5.    BL       DrvUART_EnableInt ; 0x2098
        0x00002e2e:    2001        .       MOVS     r0,#1
        0x00002e30:    e7d8        ..      B        0x2de4 ; UART_init + 60
    $d
        0x00002e32:    0000        ..      DCW    0
        0x00002e34:    54524155    UART    DCD    1414676821
        0x00002e38:    706f2030    0 op    DCD    1886330928
        0x00002e3c:    66206e65    en f    DCD    1713401445
        0x00002e40:    656c6961    aile    DCD    1701603681
        0x00002e44:    00000a64    d...    DCD    2660
        0x00002e48:    54524155    UART    DCD    1414676821
        0x00002e4c:    706f2031    1 op    DCD    1886330929
        0x00002e50:    66206e65    en f    DCD    1713401445
        0x00002e54:    656c6961    aile    DCD    1701603681
        0x00002e58:    00000a64    d...    DCD    2660
        0x00002e5c:    00002d25    %-..    DCD    11557
        0x00002e60:    00002bd1    .+..    DCD    11217
    $t
    i.Uart0_Handle
    Uart0_Handle
        0x00002e64:    b5f8        ..      PUSH     {r3-r7,lr}
        0x00002e66:    48e1        .H      LDR      r0,[pc,#900] ; [0x31ec] = 0x20000028
        0x00002e68:    7801        .x      LDRB     r1,[r0,#0]
        0x00002e6a:    2901        .)      CMP      r1,#1
        0x00002e6c:    d172        r.      BNE      0x2f54 ; Uart0_Handle + 240
        0x00002e6e:    2600        .&      MOVS     r6,#0
        0x00002e70:    7006        .p      STRB     r6,[r0,#0]
        0x00002e72:    2000        .       MOVS     r0,#0
        0x00002e74:    4cde        .L      LDR      r4,[pc,#888] ; [0x31f0] = 0x20000178
        0x00002e76:    5426        &T      STRB     r6,[r4,r0]
        0x00002e78:    1c40        @.      ADDS     r0,r0,#1
        0x00002e7a:    b2c0        ..      UXTB     r0,r0
        0x00002e7c:    2814        .(      CMP      r0,#0x14
        0x00002e7e:    d3fa        ..      BCC      0x2e76 ; Uart0_Handle + 18
        0x00002e80:    20aa        .       MOVS     r0,#0xaa
        0x00002e82:    7020         p      STRB     r0,[r4,#0]
        0x00002e84:    49da        .I      LDR      r1,[pc,#872] ; [0x31f0] = 0x20000178
        0x00002e86:    20ff        .       MOVS     r0,#0xff
        0x00002e88:    7048        Hp      STRB     r0,[r1,#1]
        0x00002e8a:    48da        .H      LDR      r0,[pc,#872] ; [0x31f4] = 0x2000002e
        0x00002e8c:    79c0        .y      LDRB     r0,[r0,#7]
        0x00002e8e:    7088        .p      STRB     r0,[r1,#2]
        0x00002e90:    4608        .F      MOV      r0,r1
        0x00002e92:    4fd7        .O      LDR      r7,[pc,#860] ; [0x31f0] = 0x20000178
        0x00002e94:    3814        .8      SUBS     r0,r0,#0x14
        0x00002e96:    7800        .x      LDRB     r0,[r0,#0]
        0x00002e98:    3f14        .?      SUBS     r7,r7,#0x14
        0x00002e9a:    78fa        .x      LDRB     r2,[r7,#3]
        0x00002e9c:    4603        .F      MOV      r3,r0
        0x00002e9e:    2103        .!      MOVS     r1,#3
        0x00002ea0:    2541        A%      MOVS     r5,#0x41
        0x00002ea2:    78bf        .x      LDRB     r7,[r7,#2]
        0x00002ea4:    f000fa4c    ..L.    BL       __ARM_common_switch8 ; 0x3340
    $d
        0x00002ea8:    2009f10f    ...     DCD    537522447
        0x00002eac:    48352e27    '.5H    DCD    1211444775
        0x00002eb0:    f2b2635c    \c..    DCD    4071777116
        0x00002eb4:    ecedeeef    ....    DCD    3975016175
        0x00002eb8:    00f1        ..      DCW    241
    $t
        0x00002eba:    210b        .!      MOVS     r1,#0xb
        0x00002ebc:    70e1        .p      STRB     r1,[r4,#3]
        0x00002ebe:    7125        %q      STRB     r5,[r4,#4]
        0x00002ec0:    7160        `q      STRB     r0,[r4,#5]
        0x00002ec2:    2049        I       MOVS     r0,#0x49
        0x00002ec4:    71a0        .q      STRB     r0,[r4,#6]
        0x00002ec6:    206e        n       MOVS     r0,#0x6e
        0x00002ec8:    71e0        .q      STRB     r0,[r4,#7]
        0x00002eca:    2065        e       MOVS     r0,#0x65
        0x00002ecc:    7220         r      STRB     r0,[r4,#8]
        0x00002ece:    206c        l       MOVS     r0,#0x6c
        0x00002ed0:    7260        `r      STRB     r0,[r4,#9]
        0x00002ed2:    206d        m       MOVS     r0,#0x6d
        0x00002ed4:    72a0        .r      STRB     r0,[r4,#0xa]
        0x00002ed6:    2061        a       MOVS     r0,#0x61
        0x00002ed8:    72e0        .r      STRB     r0,[r4,#0xb]
        0x00002eda:    2074        t       MOVS     r0,#0x74
        0x00002edc:    7320         s      STRB     r0,[r4,#0xc]
        0x00002ede:    2069        i       MOVS     r0,#0x69
        0x00002ee0:    7360        `s      STRB     r0,[r4,#0xd]
        0x00002ee2:    2063        c       MOVS     r0,#0x63
        0x00002ee4:    73a0        .s      STRB     r0,[r4,#0xe]
        0x00002ee6:    e16a        j.      B        0x31be ; Uart0_Handle + 858
        0x00002ee8:    70e1        .p      STRB     r1,[r4,#3]
        0x00002eea:    7125        %q      STRB     r5,[r4,#4]
        0x00002eec:    7160        `q      STRB     r0,[r4,#5]
        0x00002eee:    48c2        .H      LDR      r0,[pc,#776] ; [0x31f8] = 0x2000001d
        0x00002ef0:    7800        .x      LDRB     r0,[r0,#0]
        0x00002ef2:    71a0        .q      STRB     r0,[r4,#6]
        0x00002ef4:    e163        c.      B        0x31be ; Uart0_Handle + 858
        0x00002ef6:    70e1        .p      STRB     r1,[r4,#3]
        0x00002ef8:    7125        %q      STRB     r5,[r4,#4]
        0x00002efa:    7161        aq      STRB     r1,[r4,#5]
        0x00002efc:    48bf        .H      LDR      r0,[pc,#764] ; [0x31fc] = 0x2000001c
        0x00002efe:    7800        .x      LDRB     r0,[r0,#0]
        0x00002f00:    71a0        .q      STRB     r0,[r4,#6]
        0x00002f02:    e15c        \.      B        0x31be ; Uart0_Handle + 858
        0x00002f04:    70e1        .p      STRB     r1,[r4,#3]
        0x00002f06:    7125        %q      STRB     r5,[r4,#4]
        0x00002f08:    7160        `q      STRB     r0,[r4,#5]
        0x00002f0a:    48bd        .H      LDR      r0,[pc,#756] ; [0x3200] = 0x20000020
        0x00002f0c:    7800        .x      LDRB     r0,[r0,#0]
        0x00002f0e:    71a0        .q      STRB     r0,[r4,#6]
        0x00002f10:    e155        U.      B        0x31be ; Uart0_Handle + 858
        0x00002f12:    2104        .!      MOVS     r1,#4
        0x00002f14:    70e1        .p      STRB     r1,[r4,#3]
        0x00002f16:    7125        %q      STRB     r5,[r4,#4]
        0x00002f18:    7160        `q      STRB     r0,[r4,#5]
        0x00002f1a:    48ba        .H      LDR      r0,[pc,#744] ; [0x3204] = 0x20000021
        0x00002f1c:    7800        .x      LDRB     r0,[r0,#0]
        0x00002f1e:    2828        ((      CMP      r0,#0x28
        0x00002f20:    d205        ..      BCS      0x2f2e ; Uart0_Handle + 202
        0x00002f22:    212d        -!      MOVS     r1,#0x2d
        0x00002f24:    71a1        .q      STRB     r1,[r4,#6]
        0x00002f26:    2128        (!      MOVS     r1,#0x28
        0x00002f28:    1a08        ..      SUBS     r0,r1,r0
        0x00002f2a:    71e0        .q      STRB     r0,[r4,#7]
        0x00002f2c:    e147        G.      B        0x31be ; Uart0_Handle + 858
        0x00002f2e:    212b        +!      MOVS     r1,#0x2b
        0x00002f30:    71a1        .q      STRB     r1,[r4,#6]
        0x00002f32:    3828        (8      SUBS     r0,r0,#0x28
        0x00002f34:    71e0        .q      STRB     r0,[r4,#7]
        0x00002f36:    e142        B.      B        0x31be ; Uart0_Handle + 858
        0x00002f38:    2104        .!      MOVS     r1,#4
        0x00002f3a:    70e1        .p      STRB     r1,[r4,#3]
        0x00002f3c:    7125        %q      STRB     r5,[r4,#4]
        0x00002f3e:    7160        `q      STRB     r0,[r4,#5]
        0x00002f40:    48b1        .H      LDR      r0,[pc,#708] ; [0x3208] = 0x2000001e
        0x00002f42:    7800        .x      LDRB     r0,[r0,#0]
        0x00002f44:    2828        ((      CMP      r0,#0x28
        0x00002f46:    d206        ..      BCS      0x2f56 ; Uart0_Handle + 242
        0x00002f48:    212d        -!      MOVS     r1,#0x2d
        0x00002f4a:    71a1        .q      STRB     r1,[r4,#6]
        0x00002f4c:    2128        (!      MOVS     r1,#0x28
        0x00002f4e:    1a08        ..      SUBS     r0,r1,r0
        0x00002f50:    71e0        .q      STRB     r0,[r4,#7]
        0x00002f52:    e134        4.      B        0x31be ; Uart0_Handle + 858
        0x00002f54:    e149        I.      B        0x31ea ; Uart0_Handle + 902
        0x00002f56:    212b        +!      MOVS     r1,#0x2b
        0x00002f58:    71a1        .q      STRB     r1,[r4,#6]
        0x00002f5a:    3828        (8      SUBS     r0,r0,#0x28
        0x00002f5c:    71e0        .q      STRB     r0,[r4,#7]
        0x00002f5e:    e12e        ..      B        0x31be ; Uart0_Handle + 858
        0x00002f60:    70e1        .p      STRB     r1,[r4,#3]
        0x00002f62:    7125        %q      STRB     r5,[r4,#4]
        0x00002f64:    7160        `q      STRB     r0,[r4,#5]
        0x00002f66:    48a9        .H      LDR      r0,[pc,#676] ; [0x320c] = 0x2000001f
        0x00002f68:    7800        .x      LDRB     r0,[r0,#0]
        0x00002f6a:    71a0        .q      STRB     r0,[r4,#6]
        0x00002f6c:    e127        '.      B        0x31be ; Uart0_Handle + 858
        0x00002f6e:    4ba0        .K      LDR      r3,[pc,#640] ; [0x31f0] = 0x20000178
        0x00002f70:    3b14        .;      SUBS     r3,r3,#0x14
        0x00002f72:    2f00        ./      CMP      r7,#0
        0x00002f74:    d002        ..      BEQ      0x2f7c ; Uart0_Handle + 280
        0x00002f76:    2f01        ./      CMP      r7,#1
        0x00002f78:    d014        ..      BEQ      0x2fa4 ; Uart0_Handle + 320
        0x00002f7a:    e120         .      B        0x31be ; Uart0_Handle + 858
        0x00002f7c:    70e1        .p      STRB     r1,[r4,#3]
        0x00002f7e:    7125        %q      STRB     r5,[r4,#4]
        0x00002f80:    7160        `q      STRB     r0,[r4,#5]
        0x00002f82:    2105        .!      MOVS     r1,#5
        0x00002f84:    2004        .       MOVS     r0,#4
        0x00002f86:    f7fefc4f    ..O.    BL       DrvGPIO_GetBit ; 0x1828
        0x00002f8a:    2800        .(      CMP      r0,#0
        0x00002f8c:    d105        ..      BNE      0x2f9a ; Uart0_Handle + 310
        0x00002f8e:    2104        .!      MOVS     r1,#4
        0x00002f90:    4608        .F      MOV      r0,r1
        0x00002f92:    f7fefc49    ..I.    BL       DrvGPIO_GetBit ; 0x1828
        0x00002f96:    2800        .(      CMP      r0,#0
        0x00002f98:    d001        ..      BEQ      0x2f9e ; Uart0_Handle + 314
        0x00002f9a:    71a6        .q      STRB     r6,[r4,#6]
        0x00002f9c:    e10f        ..      B        0x31be ; Uart0_Handle + 858
        0x00002f9e:    2001        .       MOVS     r0,#1
        0x00002fa0:    71a0        .q      STRB     r0,[r4,#6]
        0x00002fa2:    e10c        ..      B        0x31be ; Uart0_Handle + 858
        0x00002fa4:    461e        .F      MOV      r6,r3
        0x00002fa6:    2a01        .*      CMP      r2,#1
        0x00002fa8:    d021        !.      BEQ      0x2fee ; Uart0_Handle + 394
        0x00002faa:    2105        .!      MOVS     r1,#5
        0x00002fac:    2004        .       MOVS     r0,#4
        0x00002fae:    f7fefd47    ..G.    BL       DrvGPIO_SetBit ; 0x1a40
        0x00002fb2:    2104        .!      MOVS     r1,#4
        0x00002fb4:    4608        .F      MOV      r0,r1
        0x00002fb6:    f7fefd43    ..C.    BL       DrvGPIO_SetBit ; 0x1a40
        0x00002fba:    2005        .       MOVS     r0,#5
        0x00002fbc:    70e0        .p      STRB     r0,[r4,#3]
        0x00002fbe:    7125        %q      STRB     r5,[r4,#4]
        0x00002fc0:    7830        0x      LDRB     r0,[r6,#0]
        0x00002fc2:    7160        `q      STRB     r0,[r4,#5]
        0x00002fc4:    2105        .!      MOVS     r1,#5
        0x00002fc6:    2004        .       MOVS     r0,#4
        0x00002fc8:    f7fefc2e    ....    BL       DrvGPIO_GetBit ; 0x1828
        0x00002fcc:    78f1        .x      LDRB     r1,[r6,#3]
        0x00002fce:    4288        .B      CMP      r0,r1
        0x00002fd0:    d016        ..      BEQ      0x3000 ; Uart0_Handle + 412
        0x00002fd2:    2104        .!      MOVS     r1,#4
        0x00002fd4:    4608        .F      MOV      r0,r1
        0x00002fd6:    f7fefc27    ..'.    BL       DrvGPIO_GetBit ; 0x1828
        0x00002fda:    78f1        .x      LDRB     r1,[r6,#3]
        0x00002fdc:    4288        .B      CMP      r0,r1
        0x00002fde:    d00f        ..      BEQ      0x3000 ; Uart0_Handle + 412
        0x00002fe0:    204f        O       MOVS     r0,#0x4f
        0x00002fe2:    71a0        .q      STRB     r0,[r4,#6]
        0x00002fe4:    204b        K       MOVS     r0,#0x4b
        0x00002fe6:    71e0        .q      STRB     r0,[r4,#7]
        0x00002fe8:    2020                MOVS     r0,#0x20
        0x00002fea:    7220         r      STRB     r0,[r4,#8]
        0x00002fec:    e0e7        ..      B        0x31be ; Uart0_Handle + 858
        0x00002fee:    2105        .!      MOVS     r1,#5
        0x00002ff0:    2004        .       MOVS     r0,#4
        0x00002ff2:    f7fefc0d    ....    BL       DrvGPIO_ClrBit ; 0x1810
        0x00002ff6:    2104        .!      MOVS     r1,#4
        0x00002ff8:    4608        .F      MOV      r0,r1
        0x00002ffa:    f7fefc09    ....    BL       DrvGPIO_ClrBit ; 0x1810
        0x00002ffe:    e7dc        ..      B        0x2fba ; Uart0_Handle + 342
        0x00003000:    2045        E       MOVS     r0,#0x45
        0x00003002:    71a0        .q      STRB     r0,[r4,#6]
        0x00003004:    2052        R       MOVS     r0,#0x52
        0x00003006:    71e0        .q      STRB     r0,[r4,#7]
        0x00003008:    7220         r      STRB     r0,[r4,#8]
        0x0000300a:    e0d8        ..      B        0x31be ; Uart0_Handle + 858
        0x0000300c:    4b78        xK      LDR      r3,[pc,#480] ; [0x31f0] = 0x20000178
        0x0000300e:    3b14        .;      SUBS     r3,r3,#0x14
        0x00003010:    2f00        ./      CMP      r7,#0
        0x00003012:    d002        ..      BEQ      0x301a ; Uart0_Handle + 438
        0x00003014:    2f01        ./      CMP      r7,#1
        0x00003016:    d00e        ..      BEQ      0x3036 ; Uart0_Handle + 466
        0x00003018:    e0d1        ..      B        0x31be ; Uart0_Handle + 858
        0x0000301a:    70e1        .p      STRB     r1,[r4,#3]
        0x0000301c:    7125        %q      STRB     r5,[r4,#4]
        0x0000301e:    7160        `q      STRB     r0,[r4,#5]
        0x00003020:    2105        .!      MOVS     r1,#5
        0x00003022:    2000        .       MOVS     r0,#0
        0x00003024:    f7fefc00    ....    BL       DrvGPIO_GetBit ; 0x1828
        0x00003028:    2800        .(      CMP      r0,#0
        0x0000302a:    d001        ..      BEQ      0x3030 ; Uart0_Handle + 460
        0x0000302c:    71a6        .q      STRB     r6,[r4,#6]
        0x0000302e:    e0c6        ..      B        0x31be ; Uart0_Handle + 858
        0x00003030:    2001        .       MOVS     r0,#1
        0x00003032:    71a0        .q      STRB     r0,[r4,#6]
        0x00003034:    e0c3        ..      B        0x31be ; Uart0_Handle + 858
        0x00003036:    461e        .F      MOV      r6,r3
        0x00003038:    2a01        .*      CMP      r2,#1
        0x0000303a:    d016        ..      BEQ      0x306a ; Uart0_Handle + 518
        0x0000303c:    2105        .!      MOVS     r1,#5
        0x0000303e:    2000        .       MOVS     r0,#0
        0x00003040:    f7fefcfe    ....    BL       DrvGPIO_SetBit ; 0x1a40
        0x00003044:    2005        .       MOVS     r0,#5
        0x00003046:    70e0        .p      STRB     r0,[r4,#3]
        0x00003048:    7125        %q      STRB     r5,[r4,#4]
        0x0000304a:    7830        0x      LDRB     r0,[r6,#0]
        0x0000304c:    7160        `q      STRB     r0,[r4,#5]
        0x0000304e:    2105        .!      MOVS     r1,#5
        0x00003050:    2000        .       MOVS     r0,#0
        0x00003052:    f7fefbe9    ....    BL       DrvGPIO_GetBit ; 0x1828
        0x00003056:    78f1        .x      LDRB     r1,[r6,#3]
        0x00003058:    4288        .B      CMP      r0,r1
        0x0000305a:    d00b        ..      BEQ      0x3074 ; Uart0_Handle + 528
        0x0000305c:    204f        O       MOVS     r0,#0x4f
        0x0000305e:    71a0        .q      STRB     r0,[r4,#6]
        0x00003060:    204b        K       MOVS     r0,#0x4b
        0x00003062:    71e0        .q      STRB     r0,[r4,#7]
        0x00003064:    2020                MOVS     r0,#0x20
        0x00003066:    7220         r      STRB     r0,[r4,#8]
        0x00003068:    e0a9        ..      B        0x31be ; Uart0_Handle + 858
        0x0000306a:    2105        .!      MOVS     r1,#5
        0x0000306c:    2000        .       MOVS     r0,#0
        0x0000306e:    f7fefbcf    ....    BL       DrvGPIO_ClrBit ; 0x1810
        0x00003072:    e7e7        ..      B        0x3044 ; Uart0_Handle + 480
        0x00003074:    2045        E       MOVS     r0,#0x45
        0x00003076:    71a0        .q      STRB     r0,[r4,#6]
        0x00003078:    2052        R       MOVS     r0,#0x52
        0x0000307a:    71e0        .q      STRB     r0,[r4,#7]
        0x0000307c:    7220         r      STRB     r0,[r4,#8]
        0x0000307e:    e09e        ..      B        0x31be ; Uart0_Handle + 858
        0x00003080:    e081        ..      B        0x3186 ; Uart0_Handle + 802
        0x00003082:    e06a        j.      B        0x315a ; Uart0_Handle + 758
        0x00003084:    e04c        L.      B        0x3120 ; Uart0_Handle + 700
        0x00003086:    e01d        ..      B        0x30c4 ; Uart0_Handle + 608
        0x00003088:    e000        ..      B        0x308c ; Uart0_Handle + 552
        0x0000308a:    e086        ..      B        0x319a ; Uart0_Handle + 822
        0x0000308c:    2f00        ./      CMP      r7,#0
        0x0000308e:    d002        ..      BEQ      0x3096 ; Uart0_Handle + 562
        0x00003090:    2f01        ./      CMP      r7,#1
        0x00003092:    d008        ..      BEQ      0x30a6 ; Uart0_Handle + 578
        0x00003094:    e093        ..      B        0x31be ; Uart0_Handle + 858
        0x00003096:    70e1        .p      STRB     r1,[r4,#3]
        0x00003098:    7125        %q      STRB     r5,[r4,#4]
        0x0000309a:    7160        `q      STRB     r0,[r4,#5]
        0x0000309c:    4855        UH      LDR      r0,[pc,#340] ; [0x31f4] = 0x2000002e
        0x0000309e:    3008        .0      ADDS     r0,r0,#8
        0x000030a0:    7880        .x      LDRB     r0,[r0,#2]
        0x000030a2:    71a0        .q      STRB     r0,[r4,#6]
        0x000030a4:    e08b        ..      B        0x31be ; Uart0_Handle + 858
        0x000030a6:    4953        SI      LDR      r1,[pc,#332] ; [0x31f4] = 0x2000002e
        0x000030a8:    2301        .#      MOVS     r3,#1
        0x000030aa:    708b        .p      STRB     r3,[r1,#2]
        0x000030ac:    714a        Jq      STRB     r2,[r1,#5]
        0x000030ae:    2105        .!      MOVS     r1,#5
        0x000030b0:    70e1        .p      STRB     r1,[r4,#3]
        0x000030b2:    7125        %q      STRB     r5,[r4,#4]
        0x000030b4:    7160        `q      STRB     r0,[r4,#5]
        0x000030b6:    204f        O       MOVS     r0,#0x4f
        0x000030b8:    71a0        .q      STRB     r0,[r4,#6]
        0x000030ba:    204b        K       MOVS     r0,#0x4b
        0x000030bc:    71e0        .q      STRB     r0,[r4,#7]
        0x000030be:    2020                MOVS     r0,#0x20
        0x000030c0:    7220         r      STRB     r0,[r4,#8]
        0x000030c2:    e07c        |.      B        0x31be ; Uart0_Handle + 858
        0x000030c4:    2f00        ./      CMP      r7,#0
        0x000030c6:    d002        ..      BEQ      0x30ce ; Uart0_Handle + 618
        0x000030c8:    2f01        ./      CMP      r7,#1
        0x000030ca:    d00e        ..      BEQ      0x30ea ; Uart0_Handle + 646
        0x000030cc:    e077        w.      B        0x31be ; Uart0_Handle + 858
        0x000030ce:    70e1        .p      STRB     r1,[r4,#3]
        0x000030d0:    7125        %q      STRB     r5,[r4,#4]
        0x000030d2:    7160        `q      STRB     r0,[r4,#5]
        0x000030d4:    2102        .!      MOVS     r1,#2
        0x000030d6:    2003        .       MOVS     r0,#3
        0x000030d8:    f7fefba6    ....    BL       DrvGPIO_GetBit ; 0x1828
        0x000030dc:    2800        .(      CMP      r0,#0
        0x000030de:    d001        ..      BEQ      0x30e4 ; Uart0_Handle + 640
        0x000030e0:    71a6        .q      STRB     r6,[r4,#6]
        0x000030e2:    e06c        l.      B        0x31be ; Uart0_Handle + 858
        0x000030e4:    2001        .       MOVS     r0,#1
        0x000030e6:    71a0        .q      STRB     r0,[r4,#6]
        0x000030e8:    e069        i.      B        0x31be ; Uart0_Handle + 858
        0x000030ea:    4f49        IO      LDR      r7,[pc,#292] ; [0x3210] = 0x2000002a
        0x000030ec:    2a01        .*      CMP      r2,#1
        0x000030ee:    d00b        ..      BEQ      0x3108 ; Uart0_Handle + 676
        0x000030f0:    2a00        .*      CMP      r2,#0
        0x000030f2:    d00f        ..      BEQ      0x3114 ; Uart0_Handle + 688
        0x000030f4:    2001        .       MOVS     r0,#1
        0x000030f6:    7038        8p      STRB     r0,[r7,#0]
        0x000030f8:    2002        .       MOVS     r0,#2
        0x000030fa:    70e0        .p      STRB     r0,[r4,#3]
        0x000030fc:    7125        %q      STRB     r5,[r4,#4]
        0x000030fe:    483c        <H      LDR      r0,[pc,#240] ; [0x31f0] = 0x20000178
        0x00003100:    3814        .8      SUBS     r0,r0,#0x14
        0x00003102:    7800        .x      LDRB     r0,[r0,#0]
        0x00003104:    7160        `q      STRB     r0,[r4,#5]
        0x00003106:    e05a        Z.      B        0x31be ; Uart0_Handle + 858
        0x00003108:    2102        .!      MOVS     r1,#2
        0x0000310a:    2003        .       MOVS     r0,#3
        0x0000310c:    f7fefc98    ....    BL       DrvGPIO_SetBit ; 0x1a40
        0x00003110:    703e        >p      STRB     r6,[r7,#0]
        0x00003112:    e7f1        ..      B        0x30f8 ; Uart0_Handle + 660
        0x00003114:    2102        .!      MOVS     r1,#2
        0x00003116:    2003        .       MOVS     r0,#3
        0x00003118:    f7fefb7a    ..z.    BL       DrvGPIO_ClrBit ; 0x1810
        0x0000311c:    703e        >p      STRB     r6,[r7,#0]
        0x0000311e:    e7eb        ..      B        0x30f8 ; Uart0_Handle + 660
        0x00003120:    4b33        3K      LDR      r3,[pc,#204] ; [0x31f0] = 0x20000178
        0x00003122:    3b14        .;      SUBS     r3,r3,#0x14
        0x00003124:    2f00        ./      CMP      r7,#0
        0x00003126:    d002        ..      BEQ      0x312e ; Uart0_Handle + 714
        0x00003128:    2f02        ./      CMP      r7,#2
        0x0000312a:    d00b        ..      BEQ      0x3144 ; Uart0_Handle + 736
        0x0000312c:    e047        G.      B        0x31be ; Uart0_Handle + 858
        0x0000312e:    2104        .!      MOVS     r1,#4
        0x00003130:    70e1        .p      STRB     r1,[r4,#3]
        0x00003132:    7125        %q      STRB     r5,[r4,#4]
        0x00003134:    7160        `q      STRB     r0,[r4,#5]
        0x00003136:    482f        /H      LDR      r0,[pc,#188] ; [0x31f4] = 0x2000002e
        0x00003138:    3008        .0      ADDS     r0,r0,#8
        0x0000313a:    7801        .x      LDRB     r1,[r0,#0]
        0x0000313c:    71a1        .q      STRB     r1,[r4,#6]
        0x0000313e:    7840        @x      LDRB     r0,[r0,#1]
        0x00003140:    71e0        .q      STRB     r0,[r4,#7]
        0x00003142:    e03c        <.      B        0x31be ; Uart0_Handle + 858
        0x00003144:    492b        +I      LDR      r1,[pc,#172] ; [0x31f4] = 0x2000002e
        0x00003146:    2601        .&      MOVS     r6,#1
        0x00003148:    700e        .p      STRB     r6,[r1,#0]
        0x0000314a:    70ca        .p      STRB     r2,[r1,#3]
        0x0000314c:    791a        .y      LDRB     r2,[r3,#4]
        0x0000314e:    710a        .q      STRB     r2,[r1,#4]
        0x00003150:    2102        .!      MOVS     r1,#2
        0x00003152:    70e1        .p      STRB     r1,[r4,#3]
        0x00003154:    7125        %q      STRB     r5,[r4,#4]
        0x00003156:    7160        `q      STRB     r0,[r4,#5]
        0x00003158:    e031        1.      B        0x31be ; Uart0_Handle + 858
        0x0000315a:    2f00        ./      CMP      r7,#0
        0x0000315c:    d002        ..      BEQ      0x3164 ; Uart0_Handle + 768
        0x0000315e:    2f01        ./      CMP      r7,#1
        0x00003160:    d008        ..      BEQ      0x3174 ; Uart0_Handle + 784
        0x00003162:    e02c        ,.      B        0x31be ; Uart0_Handle + 858
        0x00003164:    70e1        .p      STRB     r1,[r4,#3]
        0x00003166:    7125        %q      STRB     r5,[r4,#4]
        0x00003168:    7160        `q      STRB     r0,[r4,#5]
        0x0000316a:    4822        "H      LDR      r0,[pc,#136] ; [0x31f4] = 0x2000002e
        0x0000316c:    3008        .0      ADDS     r0,r0,#8
        0x0000316e:    78c0        .x      LDRB     r0,[r0,#3]
        0x00003170:    71a0        .q      STRB     r0,[r4,#6]
        0x00003172:    e024        $.      B        0x31be ; Uart0_Handle + 858
        0x00003174:    491f        .I      LDR      r1,[pc,#124] ; [0x31f4] = 0x2000002e
        0x00003176:    2301        .#      MOVS     r3,#1
        0x00003178:    704b        Kp      STRB     r3,[r1,#1]
        0x0000317a:    718a        .q      STRB     r2,[r1,#6]
        0x0000317c:    2102        .!      MOVS     r1,#2
        0x0000317e:    70e1        .p      STRB     r1,[r4,#3]
        0x00003180:    7125        %q      STRB     r5,[r4,#4]
        0x00003182:    7160        `q      STRB     r0,[r4,#5]
        0x00003184:    e01b        ..      B        0x31be ; Uart0_Handle + 858
        0x00003186:    2f00        ./      CMP      r7,#0
        0x00003188:    d119        ..      BNE      0x31be ; Uart0_Handle + 858
        0x0000318a:    70e1        .p      STRB     r1,[r4,#3]
        0x0000318c:    7125        %q      STRB     r5,[r4,#4]
        0x0000318e:    7160        `q      STRB     r0,[r4,#5]
        0x00003190:    4818        .H      LDR      r0,[pc,#96] ; [0x31f4] = 0x2000002e
        0x00003192:    3008        .0      ADDS     r0,r0,#8
        0x00003194:    7900        .y      LDRB     r0,[r0,#4]
        0x00003196:    71a0        .q      STRB     r0,[r4,#6]
        0x00003198:    e011        ..      B        0x31be ; Uart0_Handle + 858
        0x0000319a:    210a        .!      MOVS     r1,#0xa
        0x0000319c:    70e1        .p      STRB     r1,[r4,#3]
        0x0000319e:    7125        %q      STRB     r5,[r4,#4]
        0x000031a0:    7160        `q      STRB     r0,[r4,#5]
        0x000031a2:    2052        R       MOVS     r0,#0x52
        0x000031a4:    71a0        .q      STRB     r0,[r4,#6]
        0x000031a6:    2065        e       MOVS     r0,#0x65
        0x000031a8:    71e0        .q      STRB     r0,[r4,#7]
        0x000031aa:    2173        s!      MOVS     r1,#0x73
        0x000031ac:    7221        !r      STRB     r1,[r4,#8]
        0x000031ae:    7260        `r      STRB     r0,[r4,#9]
        0x000031b0:    2172        r!      MOVS     r1,#0x72
        0x000031b2:    72a1        .r      STRB     r1,[r4,#0xa]
        0x000031b4:    2176        v!      MOVS     r1,#0x76
        0x000031b6:    72e1        .r      STRB     r1,[r4,#0xb]
        0x000031b8:    7320         s      STRB     r0,[r4,#0xc]
        0x000031ba:    2064        d       MOVS     r0,#0x64
        0x000031bc:    7360        `s      STRB     r0,[r4,#0xd]
        0x000031be:    2001        .       MOVS     r0,#1
        0x000031c0:    1d22        ".      ADDS     r2,r4,#4
        0x000031c2:    e005        ..      B        0x31d0 ; Uart0_Handle + 876
        0x000031c4:    5c8b        .\      LDRB     r3,[r1,r2]
        0x000031c6:    5c25        %\      LDRB     r5,[r4,r0]
        0x000031c8:    195b        [.      ADDS     r3,r3,r5
        0x000031ca:    548b        .T      STRB     r3,[r1,r2]
        0x000031cc:    1c40        @.      ADDS     r0,r0,#1
        0x000031ce:    b2c0        ..      UXTB     r0,r0
        0x000031d0:    78e1        .x      LDRB     r1,[r4,#3]
        0x000031d2:    1d0b        ..      ADDS     r3,r1,#4
        0x000031d4:    4283        .B      CMP      r3,r0
        0x000031d6:    d8f5        ..      BHI      0x31c4 ; Uart0_Handle + 864
        0x000031d8:    2001        .       MOVS     r0,#1
        0x000031da:    f000f8be    ....    BL       delay_ms ; 0x335a
        0x000031de:    78e2        .x      LDRB     r2,[r4,#3]
        0x000031e0:    4903        .I      LDR      r1,[pc,#12] ; [0x31f0] = 0x20000178
        0x000031e2:    1d52        R.      ADDS     r2,r2,#5
        0x000031e4:    2000        .       MOVS     r0,#0
        0x000031e6:    f7fff8e1    ....    BL       DrvUART_Write ; 0x23ac
        0x000031ea:    bdf8        ..      POP      {r3-r7,pc}
    $d
        0x000031ec:    20000028    (..     DCD    536870952
        0x000031f0:    20000178    x..     DCD    536871288
        0x000031f4:    2000002e    ...     DCD    536870958
        0x000031f8:    2000001d    ...     DCD    536870941
        0x000031fc:    2000001c    ...     DCD    536870940
        0x00003200:    20000020     ..     DCD    536870944
        0x00003204:    20000021    !..     DCD    536870945
        0x00003208:    2000001e    ...     DCD    536870942
        0x0000320c:    2000001f    ...     DCD    536870943
        0x00003210:    2000002a    *..     DCD    536870954
    $t
    i.Uart1_Handle
    Uart1_Handle
        0x00003214:    b5f8        ..      PUSH     {r3-r7,lr}
        0x00003216:    483f        ?H      LDR      r0,[pc,#252] ; [0x3314] = 0x20000029
        0x00003218:    7801        .x      LDRB     r1,[r0,#0]
        0x0000321a:    2901        .)      CMP      r1,#1
        0x0000321c:    d178        x.      BNE      0x3310 ; Uart1_Handle + 252
        0x0000321e:    2400        .$      MOVS     r4,#0
        0x00003220:    7004        .p      STRB     r4,[r0,#0]
        0x00003222:    483d        =H      LDR      r0,[pc,#244] ; [0x3318] = 0x2000018c
        0x00003224:    493d        =I      LDR      r1,[pc,#244] ; [0x331c] = 0x20000036
        0x00003226:    7842        Bx      LDRB     r2,[r0,#1]
        0x00003228:    700a        .p      STRB     r2,[r1,#0]
        0x0000322a:    7882        .x      LDRB     r2,[r0,#2]
        0x0000322c:    704a        Jp      STRB     r2,[r1,#1]
        0x0000322e:    78c2        .x      LDRB     r2,[r0,#3]
        0x00003230:    708a        .p      STRB     r2,[r1,#2]
        0x00003232:    7902        .y      LDRB     r2,[r0,#4]
        0x00003234:    70ca        .p      STRB     r2,[r1,#3]
        0x00003236:    7940        @y      LDRB     r0,[r0,#5]
        0x00003238:    7108        .q      STRB     r0,[r1,#4]
        0x0000323a:    460e        .F      MOV      r6,r1
        0x0000323c:    3e08        .>      SUBS     r6,r6,#8
        0x0000323e:    4d36        6M      LDR      r5,[pc,#216] ; [0x3318] = 0x2000018c
        0x00003240:    7830        0x      LDRB     r0,[r6,#0]
        0x00003242:    27aa        .'      MOVS     r7,#0xaa
        0x00003244:    3514        .5      ADDS     r5,r5,#0x14
        0x00003246:    2801        .(      CMP      r0,#1
        0x00003248:    d120         .      BNE      0x328c ; Uart1_Handle + 120
        0x0000324a:    7034        4p      STRB     r4,[r6,#0]
        0x0000324c:    2000        .       MOVS     r0,#0
        0x0000324e:    542c        ,T      STRB     r4,[r5,r0]
        0x00003250:    1c40        @.      ADDS     r0,r0,#1
        0x00003252:    b2c0        ..      UXTB     r0,r0
        0x00003254:    2814        .(      CMP      r0,#0x14
        0x00003256:    d3fa        ..      BCC      0x324e ; Uart1_Handle + 58
        0x00003258:    702f        /p      STRB     r7,[r5,#0]
        0x0000325a:    200c        .       MOVS     r0,#0xc
        0x0000325c:    7068        hp      STRB     r0,[r5,#1]
        0x0000325e:    78f0        .x      LDRB     r0,[r6,#3]
        0x00003260:    70a8        .p      STRB     r0,[r5,#2]
        0x00003262:    7930        0y      LDRB     r0,[r6,#4]
        0x00003264:    70e8        .p      STRB     r0,[r5,#3]
        0x00003266:    2001        .       MOVS     r0,#1
        0x00003268:    7929        )y      LDRB     r1,[r5,#4]
        0x0000326a:    5c2a        *\      LDRB     r2,[r5,r0]
        0x0000326c:    1889        ..      ADDS     r1,r1,r2
        0x0000326e:    7129        )q      STRB     r1,[r5,#4]
        0x00003270:    1c40        @.      ADDS     r0,r0,#1
        0x00003272:    b2c0        ..      UXTB     r0,r0
        0x00003274:    2804        .(      CMP      r0,#4
        0x00003276:    d3f7        ..      BCC      0x3268 ; Uart1_Handle + 84
        0x00003278:    200a        .       MOVS     r0,#0xa
        0x0000327a:    f000f86e    ..n.    BL       delay_ms ; 0x335a
        0x0000327e:    4926        &I      LDR      r1,[pc,#152] ; [0x3318] = 0x2000018c
        0x00003280:    2001        .       MOVS     r0,#1
        0x00003282:    2205        ."      MOVS     r2,#5
        0x00003284:    3114        .1      ADDS     r1,r1,#0x14
        0x00003286:    0500        ..      LSLS     r0,r0,#20
        0x00003288:    f7fff890    ....    BL       DrvUART_Write ; 0x23ac
        0x0000328c:    7870        px      LDRB     r0,[r6,#1]
        0x0000328e:    2801        .(      CMP      r0,#1
        0x00003290:    d11d        ..      BNE      0x32ce ; Uart1_Handle + 186
        0x00003292:    7074        tp      STRB     r4,[r6,#1]
        0x00003294:    2000        .       MOVS     r0,#0
        0x00003296:    542c        ,T      STRB     r4,[r5,r0]
        0x00003298:    1c40        @.      ADDS     r0,r0,#1
        0x0000329a:    b2c0        ..      UXTB     r0,r0
        0x0000329c:    2814        .(      CMP      r0,#0x14
        0x0000329e:    d3fa        ..      BCC      0x3296 ; Uart1_Handle + 130
        0x000032a0:    702f        /p      STRB     r7,[r5,#0]
        0x000032a2:    200d        .       MOVS     r0,#0xd
        0x000032a4:    7068        hp      STRB     r0,[r5,#1]
        0x000032a6:    79b0        .y      LDRB     r0,[r6,#6]
        0x000032a8:    70a8        .p      STRB     r0,[r5,#2]
        0x000032aa:    2001        .       MOVS     r0,#1
        0x000032ac:    78e9        .x      LDRB     r1,[r5,#3]
        0x000032ae:    5c2a        *\      LDRB     r2,[r5,r0]
        0x000032b0:    1889        ..      ADDS     r1,r1,r2
        0x000032b2:    70e9        .p      STRB     r1,[r5,#3]
        0x000032b4:    1c40        @.      ADDS     r0,r0,#1
        0x000032b6:    b2c0        ..      UXTB     r0,r0
        0x000032b8:    2803        .(      CMP      r0,#3
        0x000032ba:    d3f7        ..      BCC      0x32ac ; Uart1_Handle + 152
        0x000032bc:    200a        .       MOVS     r0,#0xa
        0x000032be:    f000f84c    ..L.    BL       delay_ms ; 0x335a
        0x000032c2:    4915        .I      LDR      r1,[pc,#84] ; [0x3318] = 0x2000018c
        0x000032c4:    2204        ."      MOVS     r2,#4
        0x000032c6:    3114        .1      ADDS     r1,r1,#0x14
        0x000032c8:    0490        ..      LSLS     r0,r2,#18
        0x000032ca:    f7fff86f    ..o.    BL       DrvUART_Write ; 0x23ac
        0x000032ce:    78b0        .x      LDRB     r0,[r6,#2]
        0x000032d0:    2801        .(      CMP      r0,#1
        0x000032d2:    d11d        ..      BNE      0x3310 ; Uart1_Handle + 252
        0x000032d4:    70b4        .p      STRB     r4,[r6,#2]
        0x000032d6:    2000        .       MOVS     r0,#0
        0x000032d8:    542c        ,T      STRB     r4,[r5,r0]
        0x000032da:    1c40        @.      ADDS     r0,r0,#1
        0x000032dc:    b2c0        ..      UXTB     r0,r0
        0x000032de:    2814        .(      CMP      r0,#0x14
        0x000032e0:    d3fa        ..      BCC      0x32d8 ; Uart1_Handle + 196
        0x000032e2:    702f        /p      STRB     r7,[r5,#0]
        0x000032e4:    200a        .       MOVS     r0,#0xa
        0x000032e6:    7068        hp      STRB     r0,[r5,#1]
        0x000032e8:    7970        py      LDRB     r0,[r6,#5]
        0x000032ea:    70a8        .p      STRB     r0,[r5,#2]
        0x000032ec:    2001        .       MOVS     r0,#1
        0x000032ee:    78e9        .x      LDRB     r1,[r5,#3]
        0x000032f0:    5c2a        *\      LDRB     r2,[r5,r0]
        0x000032f2:    1889        ..      ADDS     r1,r1,r2
        0x000032f4:    70e9        .p      STRB     r1,[r5,#3]
        0x000032f6:    1c40        @.      ADDS     r0,r0,#1
        0x000032f8:    b2c0        ..      UXTB     r0,r0
        0x000032fa:    2803        .(      CMP      r0,#3
        0x000032fc:    d3f7        ..      BCC      0x32ee ; Uart1_Handle + 218
        0x000032fe:    200a        .       MOVS     r0,#0xa
        0x00003300:    f000f82b    ..+.    BL       delay_ms ; 0x335a
        0x00003304:    4904        .I      LDR      r1,[pc,#16] ; [0x3318] = 0x2000018c
        0x00003306:    2204        ."      MOVS     r2,#4
        0x00003308:    3114        .1      ADDS     r1,r1,#0x14
        0x0000330a:    0490        ..      LSLS     r0,r2,#18
        0x0000330c:    f7fff84e    ..N.    BL       DrvUART_Write ; 0x23ac
        0x00003310:    bdf8        ..      POP      {r3-r7,pc}
    $d
        0x00003312:    0000        ..      DCW    0
        0x00003314:    20000029    )..     DCD    536870953
        0x00003318:    2000018c    ...     DCD    536871308
        0x0000331c:    20000036    6..     DCD    536870966
    $t
    i.WDT_IRQHandler
    WDT_IRQHandler
        0x00003320:    4805        .H      LDR      r0,[pc,#20] ; [0x3338] = 0x40004000
        0x00003322:    6801        .h      LDR      r1,[r0,#0]
        0x00003324:    2208        ."      MOVS     r2,#8
        0x00003326:    4311        .C      ORRS     r1,r1,r2
        0x00003328:    6001        .`      STR      r1,[r0,#0]
        0x0000332a:    4804        .H      LDR      r0,[pc,#16] ; [0x333c] = 0x20000060
        0x0000332c:    6e41        An      LDR      r1,[r0,#0x64]
        0x0000332e:    2900        .)      CMP      r1,#0
        0x00003330:    d001        ..      BEQ      0x3336 ; WDT_IRQHandler + 22
        0x00003332:    2000        .       MOVS     r0,#0
        0x00003334:    4708        .G      BX       r1
        0x00003336:    4770        pG      BX       lr
    $d
        0x00003338:    40004000    .@.@    DCD    1073758208
        0x0000333c:    20000060    `..     DCD    536871008
    $t
    i.__ARM_common_switch8
    __ARM_common_switch8
        0x00003340:    b430        0.      PUSH     {r4,r5}
        0x00003342:    4674        tF      MOV      r4,lr
        0x00003344:    1e64        d.      SUBS     r4,r4,#1
        0x00003346:    7825        %x      LDRB     r5,[r4,#0]
        0x00003348:    1c64        d.      ADDS     r4,r4,#1
        0x0000334a:    42ab        .B      CMP      r3,r5
        0x0000334c:    d200        ..      BCS      0x3350 ; __ARM_common_switch8 + 16
        0x0000334e:    461d        .F      MOV      r5,r3
        0x00003350:    5d63        c]      LDRB     r3,[r4,r5]
        0x00003352:    005b        [.      LSLS     r3,r3,#1
        0x00003354:    18e3        ..      ADDS     r3,r4,r3
        0x00003356:    bc30        0.      POP      {r4,r5}
        0x00003358:    4718        .G      BX       r3
    i.delay_ms
    delay_ms
        0x0000335a:    2200        ."      MOVS     r2,#0
        0x0000335c:    237d        }#      MOVS     r3,#0x7d
        0x0000335e:    015b        [.      LSLS     r3,r3,#5
        0x00003360:    e006        ..      B        0x3370 ; delay_ms + 22
        0x00003362:    2100        .!      MOVS     r1,#0
        0x00003364:    1c49        I.      ADDS     r1,r1,#1
        0x00003366:    b289        ..      UXTH     r1,r1
        0x00003368:    4299        .B      CMP      r1,r3
        0x0000336a:    d3fb        ..      BCC      0x3364 ; delay_ms + 10
        0x0000336c:    1c52        R.      ADDS     r2,r2,#1
        0x0000336e:    b292        ..      UXTH     r2,r2
        0x00003370:    4282        .B      CMP      r2,r0
        0x00003372:    d3f6        ..      BCC      0x3362 ; delay_ms + 8
        0x00003374:    4770        pG      BX       lr
    i.ferror
    ferror
        0x00003376:    2000        .       MOVS     r0,#0
        0x00003378:    43c0        .C      MVNS     r0,r0
        0x0000337a:    4770        pG      BX       lr
    i.fputc
    fputc
        0x0000337c:    b500        ..      PUSH     {lr}
        0x0000337e:    4603        .F      MOV      r3,r0
        0x00003380:    4618        .F      MOV      r0,r3
        0x00003382:    f7fffb35    ..5.    BL       SendChar ; 0x29f0
        0x00003386:    4618        .F      MOV      r0,r3
        0x00003388:    bd00        ..      POP      {pc}
        0x0000338a:    0000        ..      MOVS     r0,r0
    i.main
    main
        0x0000338c:    f7fff95e    ..^.    BL       Init_MCU ; 0x264c
        0x00003390:    4920         I      LDR      r1,[pc,#128] ; [0x3414] = 0x20000035
        0x00003392:    20f0        .       MOVS     r0,#0xf0
        0x00003394:    7008        .p      STRB     r0,[r1,#0]
        0x00003396:    2102        .!      MOVS     r1,#2
        0x00003398:    2003        .       MOVS     r0,#3
        0x0000339a:    f7fefb51    ..Q.    BL       DrvGPIO_SetBit ; 0x1a40
        0x0000339e:    491e        .I      LDR      r1,[pc,#120] ; [0x3418] = 0x2000002a
        0x000033a0:    2001        .       MOVS     r0,#1
        0x000033a2:    7008        .p      STRB     r0,[r1,#0]
        0x000033a4:    2107        .!      MOVS     r1,#7
        0x000033a6:    2003        .       MOVS     r0,#3
        0x000033a8:    f7fefb4a    ..J.    BL       DrvGPIO_SetBit ; 0x1a40
        0x000033ac:    20ff        .       MOVS     r0,#0xff
        0x000033ae:    300f        .0      ADDS     r0,r0,#0xf
        0x000033b0:    f7fffb32    ..2.    BL       SetBL_PWM ; 0x2a18
        0x000033b4:    2105        .!      MOVS     r1,#5
        0x000033b6:    2000        .       MOVS     r0,#0
        0x000033b8:    f7fefa2a    ..*.    BL       DrvGPIO_ClrBit ; 0x1810
        0x000033bc:    2104        .!      MOVS     r1,#4
        0x000033be:    4608        .F      MOV      r0,r1
        0x000033c0:    f7fefa26    ..&.    BL       DrvGPIO_ClrBit ; 0x1810
        0x000033c4:    2105        .!      MOVS     r1,#5
        0x000033c6:    2004        .       MOVS     r0,#4
        0x000033c8:    f7fefa22    ..".    BL       DrvGPIO_ClrBit ; 0x1810
        0x000033cc:    2100        .!      MOVS     r1,#0
        0x000033ce:    4608        .F      MOV      r0,r1
        0x000033d0:    f7fefb36    ..6.    BL       DrvGPIO_SetBit ; 0x1a40
        0x000033d4:    2107        .!      MOVS     r1,#7
        0x000033d6:    2003        .       MOVS     r0,#3
        0x000033d8:    f7fefa1a    ....    BL       DrvGPIO_ClrBit ; 0x1810
        0x000033dc:    2103        .!      MOVS     r1,#3
        0x000033de:    4608        .F      MOV      r0,r1
        0x000033e0:    f7fefa16    ....    BL       DrvGPIO_ClrBit ; 0x1810
        0x000033e4:    2106        .!      MOVS     r1,#6
        0x000033e6:    2003        .       MOVS     r0,#3
        0x000033e8:    f7fefb2a    ..*.    BL       DrvGPIO_SetBit ; 0x1a40
        0x000033ec:    2105        .!      MOVS     r1,#5
        0x000033ee:    2003        .       MOVS     r0,#3
        0x000033f0:    f7fefa0e    ....    BL       DrvGPIO_ClrBit ; 0x1810
        0x000033f4:    2104        .!      MOVS     r1,#4
        0x000033f6:    2003        .       MOVS     r0,#3
        0x000033f8:    f7fefb22    ..".    BL       DrvGPIO_SetBit ; 0x1a40
        0x000033fc:    4c07        .L      LDR      r4,[pc,#28] ; [0x341c] = 0x20000022
        0x000033fe:    f7fffd31    ..1.    BL       Uart0_Handle ; 0x2e64
        0x00003402:    f7ffff07    ....    BL       Uart1_Handle ; 0x3214
        0x00003406:    7820         x      LDRB     r0,[r4,#0]
        0x00003408:    2801        .(      CMP      r0,#1
        0x0000340a:    d1f8        ..      BNE      0x33fe ; main + 114
        0x0000340c:    f7fdff16    ....    BL       ADC_HANDLE ; 0x123c
        0x00003410:    e7f5        ..      B        0x33fe ; main + 114
    $d
        0x00003412:    0000        ..      DCW    0
        0x00003414:    20000035    5..     DCD    536870965
        0x00003418:    2000002a    *..     DCD    536870954
        0x0000341c:    20000022    "..     DCD    536870946
    $t
    i.readonebyte
    readonebyte
        0x00003420:    b5f8        ..      PUSH     {r3-r7,lr}
        0x00003422:    4606        .F      MOV      r6,r0
        0x00003424:    460f        .F      MOV      r7,r1
        0x00003426:    2400        .$      MOVS     r4,#0
        0x00003428:    2001        .       MOVS     r0,#1
        0x0000342a:    f7fefb47    ..G.    BL       DrvI2C_Open ; 0x1abc
        0x0000342e:    2300        .#      MOVS     r3,#0
        0x00003430:    461a        .F      MOV      r2,r3
        0x00003432:    4619        .F      MOV      r1,r3
        0x00003434:    2001        .       MOVS     r0,#1
        0x00003436:    f7fefb27    ..'.    BL       DrvI2C_Ctrl ; 0x1a88
        0x0000343a:    4d26        &M      LDR      r5,[pc,#152] ; [0x34d4] = 0x40020000
        0x0000343c:    6828        (h      LDR      r0,[r5,#0]
        0x0000343e:    0700        ..      LSLS     r0,r0,#28
        0x00003440:    d5fc        ..      BPL      0x343c ; readonebyte + 28
        0x00003442:    0670        p.      LSLS     r0,r6,#25
        0x00003444:    0e06        ..      LSRS     r6,r0,#24
        0x00003446:    60ae        .`      STR      r6,[r5,#8]
        0x00003448:    2300        .#      MOVS     r3,#0
        0x0000344a:    2201        ."      MOVS     r2,#1
        0x0000344c:    4619        .F      MOV      r1,r3
        0x0000344e:    4618        .F      MOV      r0,r3
        0x00003450:    f7fefb1a    ....    BL       DrvI2C_Ctrl ; 0x1a88
        0x00003454:    6828        (h      LDR      r0,[r5,#0]
        0x00003456:    0700        ..      LSLS     r0,r0,#28
        0x00003458:    d5fc        ..      BPL      0x3454 ; readonebyte + 52
        0x0000345a:    b2f8        ..      UXTB     r0,r7
        0x0000345c:    60a8        .`      STR      r0,[r5,#8]
        0x0000345e:    2300        .#      MOVS     r3,#0
        0x00003460:    2201        ."      MOVS     r2,#1
        0x00003462:    4619        .F      MOV      r1,r3
        0x00003464:    4618        .F      MOV      r0,r3
        0x00003466:    f7fefb0f    ....    BL       DrvI2C_Ctrl ; 0x1a88
        0x0000346a:    6828        (h      LDR      r0,[r5,#0]
        0x0000346c:    0700        ..      LSLS     r0,r0,#28
        0x0000346e:    d5fc        ..      BPL      0x346a ; readonebyte + 74
        0x00003470:    2300        .#      MOVS     r3,#0
        0x00003472:    2201        ."      MOVS     r2,#1
        0x00003474:    4619        .F      MOV      r1,r3
        0x00003476:    4610        .F      MOV      r0,r2
        0x00003478:    f7fefb06    ....    BL       DrvI2C_Ctrl ; 0x1a88
        0x0000347c:    6828        (h      LDR      r0,[r5,#0]
        0x0000347e:    0700        ..      LSLS     r0,r0,#28
        0x00003480:    d5fc        ..      BPL      0x347c ; readonebyte + 92
        0x00003482:    1c76        v.      ADDS     r6,r6,#1
        0x00003484:    60ae        .`      STR      r6,[r5,#8]
        0x00003486:    2300        .#      MOVS     r3,#0
        0x00003488:    2201        ."      MOVS     r2,#1
        0x0000348a:    4619        .F      MOV      r1,r3
        0x0000348c:    4618        .F      MOV      r0,r3
        0x0000348e:    f7fefafb    ....    BL       DrvI2C_Ctrl ; 0x1a88
        0x00003492:    6828        (h      LDR      r0,[r5,#0]
        0x00003494:    0700        ..      LSLS     r0,r0,#28
        0x00003496:    d5fc        ..      BPL      0x3492 ; readonebyte + 114
        0x00003498:    2000        .       MOVS     r0,#0
        0x0000349a:    60a8        .`      STR      r0,[r5,#8]
        0x0000349c:    2300        .#      MOVS     r3,#0
        0x0000349e:    2201        ."      MOVS     r2,#1
        0x000034a0:    4619        .F      MOV      r1,r3
        0x000034a2:    4618        .F      MOV      r0,r3
        0x000034a4:    f7fefaf0    ....    BL       DrvI2C_Ctrl ; 0x1a88
        0x000034a8:    480b        .H      LDR      r0,[pc,#44] ; [0x34d8] = 0x2fff
        0x000034aa:    e004        ..      B        0x34b6 ; readonebyte + 150
        0x000034ac:    4621        !F      MOV      r1,r4
        0x000034ae:    1c64        d.      ADDS     r4,r4,#1
        0x000034b0:    b2a4        ..      UXTH     r4,r4
        0x000034b2:    4281        .B      CMP      r1,r0
        0x000034b4:    d802        ..      BHI      0x34bc ; readonebyte + 156
        0x000034b6:    6829        )h      LDR      r1,[r5,#0]
        0x000034b8:    0709        ..      LSLS     r1,r1,#28
        0x000034ba:    d5f7        ..      BPL      0x34ac ; readonebyte + 140
        0x000034bc:    68a8        .h      LDR      r0,[r5,#8]
        0x000034be:    b2c4        ..      UXTB     r4,r0
        0x000034c0:    2300        .#      MOVS     r3,#0
        0x000034c2:    2201        ."      MOVS     r2,#1
        0x000034c4:    4611        .F      MOV      r1,r2
        0x000034c6:    4618        .F      MOV      r0,r3
        0x000034c8:    f7fefade    ....    BL       DrvI2C_Ctrl ; 0x1a88
        0x000034cc:    f7fefac4    ....    BL       DrvI2C_Close ; 0x1a58
        0x000034d0:    4620         F      MOV      r0,r4
        0x000034d2:    bdf8        ..      POP      {r3-r7,pc}
    $d
        0x000034d4:    40020000    ...@    DCD    1073872896
        0x000034d8:    00002fff    ./..    DCD    12287
    $t
    x$fpl$dleqf
    __aeabi_cdcmple
    _dcmple
        0x000034dc:    b570        p.      PUSH     {r4-r6,lr}
        0x000034de:    2501        .%      MOVS     r5,#1
        0x000034e0:    000c        ..      MOVS     r4,r1
        0x000034e2:    052d        -.      LSLS     r5,r5,#20
        0x000034e4:    431c        .C      ORRS     r4,r4,r3
        0x000034e6:    d410        ..      BMI      0x350a ; __aeabi_cdcmple + 46
        0x000034e8:    42ec        .B      CMN      r4,r5
        0x000034ea:    d406        ..      BMI      0x34fa ; __aeabi_cdcmple + 30
        0x000034ec:    42ac        .B      CMP      r4,r5
        0x000034ee:    d40a        ..      BMI      0x3506 ; __aeabi_cdcmple + 42
        0x000034f0:    4299        .B      CMP      r1,r3
        0x000034f2:    d000        ..      BEQ      0x34f6 ; __aeabi_cdcmple + 26
        0x000034f4:    bd70        p.      POP      {r4-r6,pc}
        0x000034f6:    4290        .B      CMP      r0,r2
        0x000034f8:    bd70        p.      POP      {r4-r6,pc}
        0x000034fa:    42e9        .B      CMN      r1,r5
        0x000034fc:    d417        ..      BMI      0x352e ; __aeabi_cdcmple + 82
        0x000034fe:    42eb        .B      CMN      r3,r5
        0x00003500:    d415        ..      BMI      0x352e ; __aeabi_cdcmple + 82
        0x00003502:    4299        .B      CMP      r1,r3
        0x00003504:    bd70        p.      POP      {r4-r6,pc}
        0x00003506:    4289        .B      CMP      r1,r1
        0x00003508:    bd70        p.      POP      {r4-r6,pc}
        0x0000350a:    42ec        .B      CMN      r4,r5
        0x0000350c:    d506        ..      BPL      0x351c ; __aeabi_cdcmple + 64
        0x0000350e:    42ac        .B      CMP      r4,r5
        0x00003510:    d5f9        ..      BPL      0x3506 ; __aeabi_cdcmple + 42
        0x00003512:    428b        .B      CMP      r3,r1
        0x00003514:    d000        ..      BEQ      0x3518 ; __aeabi_cdcmple + 60
        0x00003516:    bd70        p.      POP      {r4-r6,pc}
        0x00003518:    4282        .B      CMP      r2,r0
        0x0000351a:    bd70        p.      POP      {r4-r6,pc}
        0x0000351c:    006d        m.      LSLS     r5,r5,#1
        0x0000351e:    004c        L.      LSLS     r4,r1,#1
        0x00003520:    42ec        .B      CMN      r4,r5
        0x00003522:    d204        ..      BCS      0x352e ; __aeabi_cdcmple + 82
        0x00003524:    005c        \.      LSLS     r4,r3,#1
        0x00003526:    42ec        .B      CMN      r4,r5
        0x00003528:    d201        ..      BCS      0x352e ; __aeabi_cdcmple + 82
        0x0000352a:    428b        .B      CMP      r3,r1
        0x0000352c:    bd70        p.      POP      {r4-r6,pc}
        0x0000352e:    4c03        .L      LDR      r4,[pc,#12] ; [0x353c] = 0x4160019
        0x00003530:    b430        0.      PUSH     {r4,r5}
        0x00003532:    f7fdfda3    ....    BL       __fpl_dcmp_InfNaN ; 0x107c
        0x00003536:    bc30        0.      POP      {r4,r5}
        0x00003538:    bd70        p.      POP      {r4-r6,pc}
        0x0000353a:    bf00        ..      NOP      
    $d
        0x0000353c:    04160019    ....    DCD    68550681
    $t
    x$fpl$drleqf
    __aeabi_cdrcmple
    _drcmple
        0x00003540:    b570        p.      PUSH     {r4-r6,lr}
        0x00003542:    2501        .%      MOVS     r5,#1
        0x00003544:    001c        ..      MOVS     r4,r3
        0x00003546:    052d        -.      LSLS     r5,r5,#20
        0x00003548:    430c        .C      ORRS     r4,r4,r1
        0x0000354a:    d410        ..      BMI      0x356e ; __aeabi_cdrcmple + 46
        0x0000354c:    42ec        .B      CMN      r4,r5
        0x0000354e:    d406        ..      BMI      0x355e ; __aeabi_cdrcmple + 30
        0x00003550:    42ac        .B      CMP      r4,r5
        0x00003552:    d40a        ..      BMI      0x356a ; __aeabi_cdrcmple + 42
        0x00003554:    428b        .B      CMP      r3,r1
        0x00003556:    d000        ..      BEQ      0x355a ; __aeabi_cdrcmple + 26
        0x00003558:    bd70        p.      POP      {r4-r6,pc}
        0x0000355a:    4282        .B      CMP      r2,r0
        0x0000355c:    bd70        p.      POP      {r4-r6,pc}
        0x0000355e:    42eb        .B      CMN      r3,r5
        0x00003560:    d417        ..      BMI      0x3592 ; __aeabi_cdrcmple + 82
        0x00003562:    42e9        .B      CMN      r1,r5
        0x00003564:    d415        ..      BMI      0x3592 ; __aeabi_cdrcmple + 82
        0x00003566:    428b        .B      CMP      r3,r1
        0x00003568:    bd70        p.      POP      {r4-r6,pc}
        0x0000356a:    429b        .B      CMP      r3,r3
        0x0000356c:    bd70        p.      POP      {r4-r6,pc}
        0x0000356e:    42ec        .B      CMN      r4,r5
        0x00003570:    d506        ..      BPL      0x3580 ; __aeabi_cdrcmple + 64
        0x00003572:    42ac        .B      CMP      r4,r5
        0x00003574:    d5f9        ..      BPL      0x356a ; __aeabi_cdrcmple + 42
        0x00003576:    4299        .B      CMP      r1,r3
        0x00003578:    d000        ..      BEQ      0x357c ; __aeabi_cdrcmple + 60
        0x0000357a:    bd70        p.      POP      {r4-r6,pc}
        0x0000357c:    4290        .B      CMP      r0,r2
        0x0000357e:    bd70        p.      POP      {r4-r6,pc}
        0x00003580:    006d        m.      LSLS     r5,r5,#1
        0x00003582:    005c        \.      LSLS     r4,r3,#1
        0x00003584:    42ec        .B      CMN      r4,r5
        0x00003586:    d204        ..      BCS      0x3592 ; __aeabi_cdrcmple + 82
        0x00003588:    004c        L.      LSLS     r4,r1,#1
        0x0000358a:    42ec        .B      CMN      r4,r5
        0x0000358c:    d201        ..      BCS      0x3592 ; __aeabi_cdrcmple + 82
        0x0000358e:    4299        .B      CMP      r1,r3
        0x00003590:    bd70        p.      POP      {r4-r6,pc}
        0x00003592:    b40f        ..      PUSH     {r0-r3}
        0x00003594:    4c03        .L      LDR      r4,[pc,#12] ; [0x35a4] = 0x4160019
        0x00003596:    bc0c        ..      POP      {r2,r3}
        0x00003598:    bc03        ..      POP      {r0,r1}
        0x0000359a:    b430        0.      PUSH     {r4,r5}
        0x0000359c:    f7fdfd6e    ..n.    BL       __fpl_dcmp_InfNaN ; 0x107c
        0x000035a0:    bc30        0.      POP      {r4,r5}
        0x000035a2:    bd70        p.      POP      {r4-r6,pc}
    $d
        0x000035a4:    04160019    ....    DCD    68550681
    $d.realdata
    .constdata
    x$fpl$usenofp
    Temperature_Res_Tbl
    __I$use$fp
        0x000035a8:    c2200000    .. .    DCD    3256877056
        0x000035ac:    438a999a    ...C    DCD    1133156762
        0x000035b0:    c21c0000    ....    DCD    3256614912
        0x000035b4:    4383cccd    ...C    DCD    1132711117
        0x000035b8:    c2180000    ....    DCD    3256352768
        0x000035bc:    437a199a    ..zC    DCD    1132075418
        0x000035c0:    c2140000    ....    DCD    3256090624
        0x000035c4:    436ccccd    ..lC    DCD    1131203789
        0x000035c8:    c2100000    ....    DCD    3255828480
        0x000035cc:    43600000    ..`C    DCD    1130364928
        0x000035d0:    c20c0000    ....    DCD    3255566336
        0x000035d4:    43538000    ..SC    DCD    1129545728
        0x000035d8:    c2080000    ....    DCD    3255304192
        0x000035dc:    4347999a    ..GC    DCD    1128765850
        0x000035e0:    c2040000    ....    DCD    3255042048
        0x000035e4:    433c199a    ..<C    DCD    1128012186
        0x000035e8:    c2000000    ....    DCD    3254779904
        0x000035ec:    43314ccd    .L1C    DCD    1127304397
        0x000035f0:    c1f80000    ....    DCD    3254255616
        0x000035f4:    43270000    ..'C    DCD    1126629376
        0x000035f8:    c1f00000    ....    DCD    3253731328
        0x000035fc:    431d3333    33.C    DCD    1125987123
        0x00003600:    c1e80000    ....    DCD    3253207040
        0x00003604:    4314199a    ...C    DCD    1125390746
        0x00003608:    c1e00000    ....    DCD    3252682752
        0x0000360c:    430b6666    ff.C    DCD    1124820582
        0x00003610:    c1d80000    ....    DCD    3252158464
        0x00003614:    43034ccd    .L.C    DCD    1124289741
        0x00003618:    c1d00000    ....    DCD    3251634176
        0x0000361c:    42f76666    ff.B    DCD    1123509862
        0x00003620:    c1c80000    ....    DCD    3251109888
        0x00003624:    42e93333    33.B    DCD    1122579251
        0x00003628:    c1c00000    ....    DCD    3250585600
        0x0000362c:    42dc0000    ...B    DCD    1121714176
        0x00003630:    c1b80000    ....    DCD    3250061312
        0x00003634:    42cf6666    ff.B    DCD    1120888422
        0x00003638:    c1b00000    ....    DCD    3249537024
        0x0000363c:    42c3cccd    ...B    DCD    1120128205
        0x00003640:    c1a80000    ....    DCD    3249012736
        0x00003644:    42b90000    ...B    DCD    1119420416
        0x00003648:    c1a00000    ....    DCD    3248488448
        0x0000364c:    42aedc29    )..B    DCD    1118755881
        0x00003650:    c1980000    ....    DCD    3247964160
        0x00003654:    42a5947b    {..B    DCD    1118147707
        0x00003658:    c1900000    ....    DCD    3247439872
        0x0000365c:    429ce148    H..B    DCD    1117577544
        0x00003660:    c1880000    ....    DCD    3246915584
        0x00003664:    4294b852    R..B    DCD    1117042770
        0x00003668:    c1800000    ....    DCD    3246391296
        0x0000366c:    428d0f5c    \..B    DCD    1116540764
        0x00003670:    c1700000    ..p.    DCD    3245342720
        0x00003674:    4285d70a    ...B    DCD    1116067594
        0x00003678:    c1600000    ..`.    DCD    3244294144
        0x0000367c:    427e28f6    .(~B    DCD    1115564278
        0x00003680:    c1500000    ..P.    DCD    3243245568
        0x00003684:    42715c29    )\qB    DCD    1114725417
        0x00003688:    c1400000    ..@.    DCD    3242196992
        0x0000368c:    426551ec    .QeB    DCD    1113936364
        0x00003690:    c1300000    ..0.    DCD    3241148416
        0x00003694:    425a0000    ..ZB    DCD    1113194496
        0x00003698:    c1200000    .. .    DCD    3240099840
        0x0000369c:    424f47ae    .GOB    DCD    1112491950
        0x000036a0:    c1100000    ....    DCD    3239051264
        0x000036a4:    42451eb8    ..EB    DCD    1111826104
        0x000036a8:    c1000000    ....    DCD    3238002688
        0x000036ac:    423b8f5c    \.;B    DCD    1111199580
        0x000036b0:    c0e00000    ....    DCD    3235905536
        0x000036b4:    42327ae1    .z2B    DCD    1110604513
        0x000036b8:    c0c00000    ....    DCD    3233808384
        0x000036bc:    4229eb85    ..)B    DCD    1110043525
        0x000036c0:    c0a00000    ....    DCD    3231711232
        0x000036c4:    4221cccd    ..!B    DCD    1109511373
        0x000036c8:    c0800000    ....    DCD    3229614080
        0x000036cc:    421a1eb8    ...B    DCD    1109008056
        0x000036d0:    c0400000    ..@.    DCD    3225419776
        0x000036d4:    4212cccd    ...B    DCD    1108528333
        0x000036d8:    c0000000    ....    DCD    3221225472
        0x000036dc:    420be148    H..B    DCD    1108074824
        0x000036e0:    bf800000    ....    DCD    3212836864
        0x000036e4:    420551ec    .Q.B    DCD    1107644908
        0x000036e8:    00000000    ....    DCD    0
        0x000036ec:    41fe28f6    .(.A    DCD    1107175670
        0x000036f0:    3f800000    ...?    DCD    1065353216
        0x000036f4:    41f20000    ...A    DCD    1106378752
        0x000036f8:    40000000    ...@    DCD    1073741824
        0x000036fc:    41e68f5c    \..A    DCD    1105629020
        0x00003700:    40400000    ..@@    DCD    1077936128
        0x00003704:    41db999a    ...A    DCD    1104910746
        0x00003708:    40800000    ...@    DCD    1082130432
        0x0000370c:    41d147ae    .G.A    DCD    1104234414
        0x00003710:    40a00000    ...@    DCD    1084227584
        0x00003714:    41c7851f    ...A    DCD    1103594783
        0x00003718:    40c00000    ...@    DCD    1086324736
        0x0000371c:    41be28f6    .(.A    DCD    1102981366
        0x00003720:    40e00000    ...@    DCD    1088421888
        0x00003724:    41b55c29    )\.A    DCD    1102404649
        0x00003728:    41000000    ...A    DCD    1090519040
        0x0000372c:    41acf5c3    ...A    DCD    1101854147
        0x00003730:    41100000    ...A    DCD    1091567616
        0x00003734:    41a50a3d    =..A    DCD    1101335101
        0x00003738:    41200000    .. A    DCD    1092616192
        0x0000373c:    419d70a4    .p.A    DCD    1100837028
        0x00003740:    41300000    ..0A    DCD    1093664768
        0x00003744:    41963d71    q=.A    DCD    1100365169
        0x00003748:    41400000    ..@A    DCD    1094713344
        0x0000374c:    418f70a4    .p.A    DCD    1099919524
        0x00003750:    41500000    ..PA    DCD    1095761920
        0x00003754:    4188f5c3    ...A    DCD    1099494851
        0x00003758:    41600000    ..`A    DCD    1096810496
        0x0000375c:    4182cccd    ...A    DCD    1099091149
        0x00003760:    41700000    ..pA    DCD    1097859072
        0x00003764:    4179eb85    ..yA    DCD    1098509189
        0x00003768:    41800000    ...A    DCD    1098907648
        0x0000376c:    416ee148    H.nA    DCD    1097785672
        0x00003770:    41880000    ...A    DCD    1099431936
        0x00003774:    416428f6    .(dA    DCD    1097083126
        0x00003778:    41900000    ...A    DCD    1099956224
        0x0000377c:    415a147b    {.ZA    DCD    1096422523
        0x00003780:    41980000    ...A    DCD    1100480512
        0x00003784:    4150a3d7    ..PA    DCD    1095803863
        0x00003788:    41a00000    ...A    DCD    1101004800
        0x0000378c:    4147851f    ..GA    DCD    1095206175
        0x00003790:    41a80000    ...A    DCD    1101529088
        0x00003794:    413eb852    R.>A    DCD    1094629458
        0x00003798:    41b00000    ...A    DCD    1102053376
        0x0000379c:    41368f5c    \.6A    DCD    1094094684
        0x000037a0:    41b80000    ...A    DCD    1102577664
        0x000037a4:    412e8f5c    \..A    DCD    1093570396
        0x000037a8:    41c00000    ...A    DCD    1103101952
        0x000037ac:    41273333    33'A    DCD    1093088051
        0x000037b0:    41c80000    ...A    DCD    1103626240
        0x000037b4:    41200000    .. A    DCD    1092616192
        0x000037b8:    41d00000    ...A    DCD    1104150528
        0x000037bc:    41193333    33.A    DCD    1092170547
        0x000037c0:    41d80000    ...A    DCD    1104674816
        0x000037c4:    4112b852    R..A    DCD    1091745874
        0x000037c8:    41e00000    ...A    DCD    1105199104
        0x000037cc:    410c8b44    D..A    DCD    1091341124
        0x000037d0:    41e80000    ...A    DCD    1105723392
        0x000037d4:    4106a7f0    ...A    DCD    1090955248
        0x000037d8:    41f00000    ...A    DCD    1106247680
        0x000037dc:    41010625    %..A    DCD    1090586149
        0x000037e0:    41f80000    ...A    DCD    1106771968
        0x000037e4:    40f75c29    )\.@    DCD    1089952809
        0x000037e8:    42000000    ...B    DCD    1107296256
        0x000037ec:    40ed1eb8    ...@    DCD    1089281720
        0x000037f0:    42040000    ...B    DCD    1107558400
        0x000037f4:    40e3645a    Zd.@    DCD    1088644186
        0x000037f8:    42080000    ...B    DCD    1107820544
        0x000037fc:    40da147b    {..@    DCD    1088033915
        0x00003800:    420c0000    ...B    DCD    1108082688
        0x00003804:    40d1374c    L7.@    DCD    1087453004
        0x00003808:    42100000    ...B    DCD    1108344832
        0x0000380c:    40c8bc6a    j..@    DCD    1086897258
        0x00003810:    42140000    ...B    DCD    1108606976
        0x00003814:    40c0a3d7    ...@    DCD    1086366679
        0x00003818:    42180000    ...B    DCD    1108869120
        0x0000381c:    40b8e560    `..@    DCD    1085859168
        0x00003820:    421c0000    ...B    DCD    1109131264
        0x00003824:    40b18937    7..@    DCD    1085376823
        0x00003828:    42200000    .. B    DCD    1109393408
        0x0000382c:    40aa76c9    .v.@    DCD    1084913353
        0x00003830:    42240000    ..$B    DCD    1109655552
        0x00003834:    40a3be77    w..@    DCD    1084472951
        0x00003838:    42280000    ..(B    DCD    1109917696
        0x0000383c:    409d47ae    .G.@    DCD    1084049326
        0x00003840:    422c0000    ..,B    DCD    1110179840
        0x00003844:    409722d1    .".@    DCD    1083646673
        0x00003848:    42300000    ..0B    DCD    1110441984
        0x0000384c:    40913f7d    }?.@    DCD    1083260797
        0x00003850:    42340000    ..4B    DCD    1110704128
        0x00003854:    408b9db2    ...@    DCD    1082891698
        0x00003858:    42380000    ..8B    DCD    1110966272
        0x0000385c:    40863d71    q=.@    DCD    1082539377
        0x00003860:    423c0000    ..<B    DCD    1111228416
        0x00003864:    40811687    ...@    DCD    1082201735
        0x00003868:    42400000    ..@B    DCD    1111490560
        0x0000386c:    407851ec    .Qx@    DCD    1081627116
        0x00003870:    42440000    ..DB    DCD    1111752704
        0x00003874:    406ee979    y.n@    DCD    1081010553
        0x00003878:    42480000    ..HB    DCD    1112014848
        0x0000387c:    4065e354    T.e@    DCD    1080419156
        0x00003880:    424c0000    ..LB    DCD    1112276992
        0x00003884:    405d3f7d    }?]@    DCD    1079852925
        0x00003888:    42500000    ..PB    DCD    1112539136
        0x0000388c:    4054fdf4    ..T@    DCD    1079311860
        0x00003890:    42540000    ..TB    DCD    1112801280
        0x00003894:    404d0e56    V.M@    DCD    1078791766
        0x00003898:    42580000    ..XB    DCD    1113063424
        0x0000389c:    40458106    ..E@    DCD    1078296838
        0x000038a0:    425c0000    ..\B    DCD    1113325568
        0x000038a4:    403e353f    ?5>@    DCD    1077818687
        0x000038a8:    42600000    ..`B    DCD    1113587712
        0x000038ac:    40373b64    d;7@    DCD    1077361508
        0x000038b0:    42640000    ..dB    DCD    1113849856
        0x000038b4:    40309375    u.0@    DCD    1076925301
        0x000038b8:    42680000    ..hB    DCD    1114112000
        0x000038bc:    402a2d0e    .-*@    DCD    1076505870
        0x000038c0:    426c0000    ..lB    DCD    1114374144
        0x000038c4:    40241893    ..$@    DCD    1076107411
        0x000038c8:    42700000    ..pB    DCD    1114636288
        0x000038cc:    401e353f    ?5.@    DCD    1075721535
        0x000038d0:    42740000    ..tB    DCD    1114898432
        0x000038d4:    40189375    u..@    DCD    1075352437
        0x000038d8:    42780000    ..xB    DCD    1115160576
        0x000038dc:    401322d1    .".@    DCD    1074995921
        0x000038e0:    427c0000    ..|B    DCD    1115422720
        0x000038e4:    400df3b6    ...@    DCD    1074656182
        0x000038e8:    42800000    ...B    DCD    1115684864
        0x000038ec:    40090625    %..@    DCD    1074333221
        0x000038f0:    42820000    ...B    DCD    1115815936
        0x000038f4:    40043958    X9.@    DCD    1074018648
        0x000038f8:    42840000    ...B    DCD    1115947008
        0x000038fc:    3fff3b64    d;.?    DCD    1073691492
        0x00003900:    42860000    ...B    DCD    1116078080
        0x00003904:    3ff6872b    +..?    DCD    1073121067
        0x00003908:    42880000    ...B    DCD    1116209152
        0x0000390c:    3fee147b    {..?    DCD    1072567419
        0x00003910:    428a0000    ...B    DCD    1116340224
        0x00003914:    3fe5e354    T..?    DCD    1072030548
        0x00003918:    428c0000    ...B    DCD    1116471296
        0x0000391c:    3fde147b    {..?    DCD    1071518843
        0x00003920:    428e0000    ...B    DCD    1116602368
        0x00003924:    3fd6a7f0    ...?    DCD    1071032304
        0x00003928:    42900000    ...B    DCD    1116733440
        0x0000392c:    3fcf7cee    .|.?    DCD    1070562542
        0x00003930:    42920000    ...B    DCD    1116864512
        0x00003934:    3fc89375    u..?    DCD    1070109557
        0x00003938:    42940000    ...B    DCD    1116995584
        0x0000393c:    3fc1eb85    ...?    DCD    1069673349
        0x00003940:    42960000    ...B    DCD    1117126656
        0x00003944:    3fbb851f    ...?    DCD    1069253919
        0x00003948:    42980000    ...B    DCD    1117257728
        0x0000394c:    3fb56042    B`.?    DCD    1068851266
        0x00003950:    429a0000    ...B    DCD    1117388800
        0x00003954:    3faf7cee    .|.?    DCD    1068465390
        0x00003958:    429c0000    ...B    DCD    1117519872
        0x0000395c:    3fa9ba5e    ^..?    DCD    1068087902
        0x00003960:    429e0000    ...B    DCD    1117650944
        0x00003964:    3fa45a1d    .Z.?    DCD    1067735581
        0x00003968:    42a00000    ...B    DCD    1117782016
        0x0000396c:    3f9f1aa0    ...?    DCD    1067391648
        0x00003970:    42a20000    ...B    DCD    1117913088
        0x00003974:    3f99fbe7    ...?    DCD    1067056103
        0x00003978:    42a40000    ...B    DCD    1118044160
        0x0000397c:    3f951eb8    ...?    DCD    1066737336
        0x00003980:    42a60000    ...B    DCD    1118175232
        0x00003984:    3f90624e    Nb.?    DCD    1066426958
        0x00003988:    42a80000    ...B    DCD    1118306304
        0x0000398c:    3f8be76d    m..?    DCD    1066133357
        0x00003990:    42aa0000    ...B    DCD    1118437376
        0x00003994:    3f878d50    P..?    DCD    1065848144
        0x00003998:    42ac0000    ...B    DCD    1118568448
        0x0000399c:    3f8374bc    .t.?    DCD    1065579708
        0x000039a0:    42ae0000    ...B    DCD    1118699520
        0x000039a4:    3f7ef9db    ..~?    DCD    1065286107
        0x000039a8:    42b00000    ...B    DCD    1118830592
        0x000039ac:    3f770a3d    =.w?    DCD    1064766013
        0x000039b0:    42b20000    ...B    DCD    1118961664
        0x000039b4:    3f6f9db2    ..o?    DCD    1064279474
        0x000039b8:    42b40000    ...B    DCD    1119092736
        0x000039bc:    3f6872b0    .rh?    DCD    1063809712
        0x000039c0:    42b60000    ...B    DCD    1119223808
        0x000039c4:    3f618937    7.a?    DCD    1063356727
        0x000039c8:    42b80000    ...B    DCD    1119354880
        0x000039cc:    3f5ae148    H.Z?    DCD    1062920520
        0x000039d0:    42ba0000    ...B    DCD    1119485952
        0x000039d4:    3f547ae1    .zT?    DCD    1062501089
        0x000039d8:    42bc0000    ...B    DCD    1119617024
        0x000039dc:    3f4e147b    {.N?    DCD    1062081659
        0x000039e0:    42be0000    ...B    DCD    1119748096
        0x000039e4:    3f483127    '1H?    DCD    1061695783
        0x000039e8:    42c00000    ...B    DCD    1119879168
        0x000039ec:    3f424dd3    .MB?    DCD    1061309907
        0x000039f0:    42c20000    ...B    DCD    1120010240
        0x000039f4:    3f3cac08    ..<?    DCD    1060940808
        0x000039f8:    42c40000    ...B    DCD    1120141312
        0x000039fc:    3f370a3d    =.7?    DCD    1060571709
        0x00003a00:    42c60000    ...B    DCD    1120272384
        0x00003a04:    3f31eb85    ..1?    DCD    1060236165
        0x00003a08:    42c80000    ...B    DCD    1120403456
        0x00003a0c:    3f2c8b44    D.,?    DCD    1059883844
        0x00003a10:    42ca0000    ...B    DCD    1120534528
        0x00003a14:    3f27ef9e    ..'?    DCD    1059581854
        0x00003a18:    42cc0000    ...B    DCD    1120665600
        0x00003a1c:    3f2353f8    .S#?    DCD    1059279864
        0x00003a20:    42ce0000    ...B    DCD    1120796672
        0x00003a24:    3f1eb852    R..?    DCD    1058977874
        0x00003a28:    42d00000    ...B    DCD    1120927744
        0x00003a2c:    3f1a5e35    5^.?    DCD    1058692661
        0x00003a30:    42d20000    ...B    DCD    1121058816
        0x00003a34:    3f160419    ...?    DCD    1058407449
        0x00003a38:    42d40000    ...B    DCD    1121189888
        0x00003a3c:    3f11a9fc    ...?    DCD    1058122236
        0x00003a40:    42d60000    ...B    DCD    1121320960
        0x00003a44:    3f0dd2f2    ...?    DCD    1057870578
        0x00003a48:    42d80000    ...B    DCD    1121452032
        0x00003a4c:    3f09ba5e    ^..?    DCD    1057602142
        0x00003a50:    42da0000    ...B    DCD    1121583104
        0x00003a54:    3f05e354    T..?    DCD    1057350484
        0x00003a58:    42dc0000    ...B    DCD    1121714176
        0x00003a5c:    3f020c4a    J..?    DCD    1057098826
        0x00003a60:    42de0000    ...B    DCD    1121845248
        0x00003a64:    3efced91    ...>    DCD    1056763281
        0x00003a68:    42e00000    ...B    DCD    1121976320
        0x00003a6c:    3ef5c28f    ...>    DCD    1056293519
        0x00003a70:    42e20000    ...B    DCD    1122107392
        0x00003a74:    3eef1aa0    ...>    DCD    1055857312
        0x00003a78:    42e40000    ...B    DCD    1122238464
        0x00003a7c:    3ee872b0    .r.>    DCD    1055421104
        0x00003a80:    42e60000    ...B    DCD    1122369536
        0x00003a84:    3ee1cac1    ...>    DCD    1054984897
        0x00003a88:    42e80000    ...B    DCD    1122500608
        0x00003a8c:    3edba5e3    ...>    DCD    1054582243
        0x00003a90:    42ea0000    ...B    DCD    1122631680
        0x00003a94:    3ed58106    ...>    DCD    1054179590
        0x00003a98:    42ec0000    ...B    DCD    1122762752
        0x00003a9c:    3ecfdf3b    ;..>    DCD    1053810491
        0x00003aa0:    42ee0000    ...B    DCD    1122893824
        0x00003aa4:    3ec9ba5e    ^..>    DCD    1053407838
        0x00003aa8:    42f00000    ...B    DCD    1123024896
        0x00003aac:    3ec49ba6    ...>    DCD    1053072294
        0x00003ab0:    42f20000    ...B    DCD    1123155968
        0x00003ab4:    3ebef9db    ...>    DCD    1052703195
        0x00003ab8:    42f40000    ...B    DCD    1123287040
        0x00003abc:    3eb9db23    #..>    DCD    1052367651
        0x00003ac0:    42f60000    ...B    DCD    1123418112
        0x00003ac4:    3eb4bc6a    j..>    DCD    1052032106
        0x00003ac8:    42f80000    ...B    DCD    1123549184
        0x00003acc:    3eaf9db2    ...>    DCD    1051696562
        0x00003ad0:    42fa0000    ...B    DCD    1123680256
        0x00003ad4:    3eab020c    ...>    DCD    1051394572
        0x00003ad8:    42fc0000    ...B    DCD    1123811328
        0x00003adc:    3ea66666    ff.>    DCD    1051092582
        0x00003ae0:    42fe0000    ...B    DCD    1123942400
        0x00003ae4:    3ea24dd3    .M.>    DCD    1050824147
        0x00003ae8:    43000000    ...C    DCD    1124073472
        0x00003aec:    3e9db22d    -..>    DCD    1050522157
        0x00003af0:    43010000    ...C    DCD    1124139008
        0x00003af4:    3e99999a    ...>    DCD    1050253722
        0x00003af8:    43020000    ...C    DCD    1124204544
        0x00003afc:    3e958106    ...>    DCD    1049985286
        0x00003b00:    43030000    ...C    DCD    1124270080
        0x00003b04:    3e91eb85    ...>    DCD    1049750405
        0x00003b08:    43040000    ...C    DCD    1124335616
        0x00003b0c:    3e8dd2f2    ...>    DCD    1049481970
        0x00003b10:    43050000    ...C    DCD    1124401152
        0x00003b14:    3e8a3d71    q=.>    DCD    1049247089
        0x00003b18:    43060000    ...C    DCD    1124466688
        0x00003b1c:    3e86a7f0    ...>    DCD    1049012208
        0x00003b20:    43070000    ...C    DCD    1124532224
        0x00003b24:    3e839581    ...>    DCD    1048810881
        0x00003b28:    43080000    ...C    DCD    1124597760
        0x00003b2c:    3e800000    ...>    DCD    1048576000
        0x00003b30:    43090000    ...C    DCD    1124663296
        0x00003b34:    3e79db23    #.y>    DCD    1048173347
        0x00003b38:    430a0000    ...C    DCD    1124728832
        0x00003b3c:    3e73b646    F.s>    DCD    1047770694
        0x00003b40:    430b0000    ...C    DCD    1124794368
        0x00003b44:    3e6d9168    h.m>    DCD    1047368040
        0x00003b48:    430c0000    ...C    DCD    1124859904
        0x00003b4c:    3e676c8b    .lg>    DCD    1046965387
        0x00003b50:    430d0000    ...C    DCD    1124925440
        0x00003b54:    3e6147ae    .Ga>    DCD    1046562734
        0x00003b58:    430e0000    ...C    DCD    1124990976
        0x00003b5c:    3e5c28f6    .(\>    DCD    1046227190
        0x00003b60:    430f0000    ...C    DCD    1125056512
        0x00003b64:    3e570a3d    =.W>    DCD    1045891645
        0x00003b68:    43100000    ...C    DCD    1125122048
        0x00003b6c:    3e50e560    `.P>    DCD    1045488992
        0x00003b70:    43110000    ...C    DCD    1125187584
        0x00003b74:    3e4bc6a8    ..K>    DCD    1045153448
        0x00003b78:    43120000    ...C    DCD    1125253120
        0x00003b7c:    3e47ae14    ..G>    DCD    1044885012
        0x00003b80:    43130000    ...C    DCD    1125318656
        0x00003b84:    3e428f5c    \.B>    DCD    1044549468
        0x00003b88:    43140000    ...C    DCD    1125384192
        0x00003b8c:    3e3e76c9    .v>>    DCD    1044281033
        0x00003b90:    43150000    ...C    DCD    1125449728
        0x00003b94:    3e395810    .X9>    DCD    1043945488
        0x00003b98:    43160000    ...C    DCD    1125515264
        0x00003b9c:    3e353f7d    }?5>    DCD    1043677053
        0x00003ba0:    43170000    ...C    DCD    1125580800
        0x00003ba4:    3e3126e9    .&1>    DCD    1043408617
        0x00003ba8:    43180000    ...C    DCD    1125646336
        0x00003bac:    3e2d0e56    V.->    DCD    1043140182
        0x00003bb0:    43190000    ...C    DCD    1125711872
        0x00003bb4:    3e28f5c3    ..(>    DCD    1042871747
        0x00003bb8:    431a0000    ...C    DCD    1125777408
        0x00003bbc:    3e24dd2f    /.$>    DCD    1042603311
        0x00003bc0:    431b0000    ...C    DCD    1125842944
        0x00003bc4:    3e21cac1    ..!>    DCD    1042401985
        0x00003bc8:    431c0000    ...C    DCD    1125908480
        0x00003bcc:    3e1db22d    -..>    DCD    1042133549
        0x00003bd0:    431d0000    ...C    DCD    1125974016
        0x00003bd4:    3e1a9fbe    ...>    DCD    1041932222
        0x00003bd8:    431e0000    ...C    DCD    1126039552
        0x00003bdc:    3e16872b    +..>    DCD    1041663787
        0x00003be0:    431f0000    ...C    DCD    1126105088
        0x00003be4:    3e1374bc    .t.>    DCD    1041462460
        0x00003be8:    43200000    .. C    DCD    1126170624
        0x00003bec:    3e10624e    Nb.>    DCD    1041261134
        0x00003bf0:    43210000    ..!C    DCD    1126236160
        0x00003bf4:    3e0d4fdf    .O.>    DCD    1041059807
        0x00003bf8:    43220000    .."C    DCD    1126301696
        0x00003bfc:    3e0a3d71    q=.>    DCD    1040858481
        0x00003c00:    43230000    ..#C    DCD    1126367232
        0x00003c04:    3e072b02    .+.>    DCD    1040657154
        0x00003c08:    43240000    ..$C    DCD    1126432768
        0x00003c0c:    3e041893    ...>    DCD    1040455827
        0x00003c10:    43250000    ..%C    DCD    1126498304
        0x00003c14:    3e020c4a    J..>    DCD    1040321610
        0x00003c18:    43260000    ..&C    DCD    1126563840
        0x00003c1c:    3dfdf3b6    ...=    DCD    1040053174
        0x00003c20:    43270000    ..'C    DCD    1126629376
        0x00003c24:    3df7ced9    ...=    DCD    1039650521
        0x00003c28:    43280000    ..(C    DCD    1126694912
        0x00003c2c:    3df3b646    F..=    DCD    1039382086
        0x00003c30:    43290000    ..)C    DCD    1126760448
        0x00003c34:    3ded9168    h..=    DCD    1038979432
        0x00003c38:    432a0000    ..*C    DCD    1126825984
        0x00003c3c:    3de978d5    .x.=    DCD    1038710997
        0x00003c40:    432b0000    ..+C    DCD    1126891520
        0x00003c44:    3de56042    B`.=    DCD    1038442562
        0x00003c48:    432c0000    ..,C    DCD    1126957056
        0x00003c4c:    3ddf3b64    d;.=    DCD    1038039908
        0x00003c50:    432d0000    ..-C    DCD    1127022592
        0x00003c54:    3ddb22d1    .".=    DCD    1037771473
        0x00003c58:    432e0000    ...C    DCD    1127088128
        0x00003c5c:    3dd70a3d    =..=    DCD    1037503037
        0x00003c60:    432f0000    ../C    DCD    1127153664
        0x00003c64:    3dd2f1aa    ...=    DCD    1037234602
        0x00003c68:    43300000    ..0C    DCD    1127219200
        0x00003c6c:    3dced917    ...=    DCD    1036966167
        0x00003c70:    43310000    ..1C    DCD    1127284736
        0x00003c74:    3dcac083    ...=    DCD    1036697731
        0x00003c78:    43320000    ..2C    DCD    1127350272
        0x00003c7c:    3dc6a7f0    ...=    DCD    1036429296
        0x00003c80:    43330000    ..3C    DCD    1127415808
        0x00003c84:    3dc28f5c    \..=    DCD    1036160860
        0x00003c88:    43340000    ..4C    DCD    1127481344
        0x00003c8c:    3dbe76c9    .v.=    DCD    1035892425
        0x00003c90:    43350000    ..5C    DCD    1127546880
        0x00003c94:    3dba5e35    5^.=    DCD    1035623989
        0x00003c98:    43360000    ..6C    DCD    1127612416
        0x00003c9c:    3db645a2    .E.=    DCD    1035355554
        0x00003ca0:    43370000    ..7C    DCD    1127677952
        0x00003ca4:    3db22d0e    .-.=    DCD    1035087118
        0x00003ca8:    43380000    ..8C    DCD    1127743488
        0x00003cac:    3db020c5    . .=    DCD    1034952901
        0x00003cb0:    43390000    ..9C    DCD    1127809024
        0x00003cb4:    3dac0831    1..=    DCD    1034684465
        0x00003cb8:    433a0000    ..:C    DCD    1127874560
        0x00003cbc:    3da7ef9e    ...=    DCD    1034416030
        0x00003cc0:    433b0000    ..;C    DCD    1127940096
        0x00003cc4:    3da5e354    T..=    DCD    1034281812
        0x00003cc8:    433c0000    ..<C    DCD    1128005632
        0x00003ccc:    3da1cac1    ...=    DCD    1034013377
        0x00003cd0:    433d0000    ..=C    DCD    1128071168
        0x00003cd4:    3d9db22d    -..=    DCD    1033744941
        0x00003cd8:    433e0000    ..>C    DCD    1128136704
        0x00003cdc:    3d9ba5e3    ...=    DCD    1033610723
        0x00003ce0:    433f0000    ..?C    DCD    1128202240
        0x00003ce4:    3d978d50    P..=    DCD    1033342288
        0x00003ce8:    43400000    ..@C    DCD    1128267776
        0x00003cec:    3d958106    ...=    DCD    1033208070
        0x00003cf0:    43410000    ..AC    DCD    1128333312
        0x00003cf4:    3d916873    sh.=    DCD    1032939635
        0x00003cf8:    43420000    ..BC    DCD    1128398848
        0x00003cfc:    3d8f5c29    )\.=    DCD    1032805417
        0x00003d00:    43430000    ..CC    DCD    1128464384
        0x00003d04:    3d8d4fdf    .O.=    DCD    1032671199
        0x00003d08:    43440000    ..DC    DCD    1128529920
        0x00003d0c:    3d89374c    L7.=    DCD    1032402764
        0x00003d10:    43450000    ..EC    DCD    1128595456
        0x00003d14:    3d872b02    .+.=    DCD    1032268546
        0x00003d18:    43460000    ..FC    DCD    1128660992
        0x00003d1c:    3d851eb8    ...=    DCD    1032134328
        0x00003d20:    43470000    ..GC    DCD    1128726528
        0x00003d24:    3d810625    %..=    DCD    1031865893
        0x00003d28:    43480000    ..HC    DCD    1128792064
        0x00003d2c:    3d7df3b6    ..}=    DCD    1031664566
    .constdata
        0x00003d30:    00000001    ....    DCD    1
        0x00003d34:    00000002    ....    DCD    2
        0x00003d38:    00000002    ....    DCD    2
        0x00003d3c:    00000004    ....    DCD    4
    .constdata
    uc_hextab
        0x00003d40:    33323130    0123    DCD    858927408
        0x00003d44:    37363534    4567    DCD    926299444
        0x00003d48:    42413938    89AB    DCD    1111570744
        0x00003d4c:    46454443    CDEF    DCD    1178944579
        0x00003d50:    00583040    @0X.    DCD    5779520
    lc_hextab
        0x00003d54:    33323130    0123    DCD    858927408
        0x00003d58:    37363534    4567    DCD    926299444
        0x00003d5c:    62613938    89ab    DCD    1650538808
        0x00003d60:    66656463    cdef    DCD    1717920867
        0x00003d64:    00783040    @0x.    DCD    7876672
    .constdata
    ddiv_reciptbl
        0x00003d68:    7e7f8080    ...~    DCD    2122285184
        0x00003d6c:    7a7b7c7d    }|{z    DCD    2054913149
        0x00003d70:    76777879    yxwv    DCD    1987541113
        0x00003d74:    73747576    vuts    DCD    1937012086
        0x00003d78:    70717172    rqqp    DCD    1886482802
        0x00003d7c:    6d6e6e6f    onnm    DCD    1835953775
        0x00003d80:    6a6b6c6c    llkj    DCD    1785425004
        0x00003d84:    6868696a    jihh    DCD    1751673194
        0x00003d88:    65666667    gffe    DCD    1701209703
        0x00003d8c:    63636464    ddcc    DCD    1667458148
        0x00003d90:    60616162    baa`    DCD    1616994658
        0x00003d94:    5e5f5f60    `__^    DCD    1583308640
        0x00003d98:    5c5d5d5e    ^]]\    DCD    1549622622
        0x00003d9c:    5a5b5b5c    \[[Z    DCD    1515936604
        0x00003da0:    5859595a    ZYYX    DCD    1482250586
        0x00003da4:    56575758    XWWV    DCD    1448564568
        0x00003da8:    55555556    VUUU    DCD    1431655766
        0x00003dac:    53535454    TTSS    DCD    1397970004
        0x00003db0:    51525252    RRRQ    DCD    1364349522
        0x00003db4:    50505051    QPPP    DCD    1347440721
        0x00003db8:    4e4f4f4f    OOON    DCD    1313820495
        0x00003dbc:    4d4d4d4e    NMMM    DCD    1296911694
        0x00003dc0:    4b4c4c4c    LLLK    DCD    1263291468
        0x00003dc4:    4a4a4b4b    KKJJ    DCD    1246382923
        0x00003dc8:    4949494a    JIII    DCD    1229539658
        0x00003dcc:    47484848    HHHG    DCD    1195919432
        0x00003dd0:    46474747    GGGF    DCD    1179076423
        0x00003dd4:    45454646    FFEE    DCD    1162167878
        0x00003dd8:    44444445    EDDD    DCD    1145324613
        0x00003ddc:    43434344    DCCC    DCD    1128481604
        0x00003de0:    42424243    CBBB    DCD    1111638595
        0x00003de4:    41414142    BAAA    DCD    1094795586
    Region$$Table$$Base
        0x00003de8:    00003e08    .>..    DCD    15880
        0x00003dec:    20000000    ...     DCD    536870912
        0x00003df0:    000000d4    ....    DCD    212
        0x00003df4:    00000104    ....    DCD    260
        0x00003df8:    00003edc    .>..    DCD    16092
        0x00003dfc:    200000d4    ...     DCD    536871124
        0x00003e00:    00000604    ....    DCD    1540
        0x00003e04:    00000120     ...    DCD    288
    Region$$Table$$Limit

** Section #2 'ER_RW' (SHT_PROGBITS) [SHF_ALLOC + SHF_WRITE]
    Size   : 212 bytes (alignment 4)
    Address: 0x20000000


** Section #3 'ER_ZI' (SHT_NOBITS) [SHF_ALLOC + SHF_WRITE]
    Size   : 1540 bytes (alignment 8)
    Address: 0x200000d4


** Section #4 '.debug_abbrev' (SHT_PROGBITS)
    Size   : 1476 bytes


** Section #5 '.debug_frame' (SHT_PROGBITS)
    Size   : 3208 bytes


** Section #6 '.debug_info' (SHT_PROGBITS)
    Size   : 89224 bytes


** Section #7 '.debug_line' (SHT_PROGBITS)
    Size   : 17132 bytes


** Section #8 '.debug_loc' (SHT_PROGBITS)
    Size   : 6320 bytes


** Section #9 '.debug_macinfo' (SHT_PROGBITS)
    Size   : 35756 bytes


** Section #10 '.debug_pubnames' (SHT_PROGBITS)
    Size   : 4522 bytes


** Section #11 '.symtab' (SHT_SYMTAB)
    Size   : 12128 bytes (alignment 4)
    String table #12 '.strtab'
    Last local symbol no. 521


** Section #12 '.strtab' (SHT_STRTAB)
    Size   : 8704 bytes


** Section #13 '.note' (SHT_NOTE)
    Size   : 28 bytes (alignment 4)


** Section #14 '.comment' (SHT_PROGBITS)
    Size   : 10028 bytes


** Section #15 '.shstrtab' (SHT_STRTAB)
    Size   : 156 bytes


